(dp1
S'a'
(dp2
S'antigen'
p3
I1
sS'and 1'
p4
I1
sS'aid'
p5
I1
sS'at 2'
p6
I1
sS'at 1'
p7
I1
sS'activating'
p8
I1
ssS'c'
(dp9
S'cut'
p10
I1
sS'camp'
p11
I1
sS'cat'
p12
I1
ssS'b'
(dp13
S'bars'
p14
I1
sS'bar'
p15
I1
sS'best'
p16
I1
ssS'd'
(dp17
S'damage'
p18
I1
ssS'g'
(dp19
S'great'
p20
I1
sS'gal'
p21
I1
sS'gas'
p22
I1
sS'goat'
p23
I1
sS'gap'
p24
I1
ssS'f'
(dp25
S'fate'
p26
I1
sS'fragment'
p27
I1
sS'for 20'
p28
I1
sS'fast'
p29
I1
sS'fig'
p30
I1
sS'find'
p31
I1
sS'fact'
p32
I1
ssS'i'
(dp33
S'impact'
p34
I1
sS'insulin'
p35
I1
sS'ice'
p36
I1
ssS'h'
(dp37
S'hr'
p38
I1
sS'hrs'
p39
I1
ssS'k'
(dp40
S'kit'
p41
I1
ssS'm'
(dp42
S'mark'
p43
I1
sS'met'
p44
I1
sS'mass'
p45
I1
sS'mail'
p46
I1
sS'mice'
p47
I1
sS'minor'
p48
I1
ssS'l'
(dp49
S'large'
p50
I1
sS'light'
p51
I1
sS'led'
p52
I1
ssS'o'
(dp53
S'or 2'
p54
I1
sS'or 1'
p55
I1
sS'or 5'
p56
I1
ssS'p'
(dp57
S'pi'
p58
I1
ssS's'
(dp59
S'simple'
p60
I1
sS'step'
p61
I1
sS'set'
p62
I1
sS'sera'
p63
I1
ssS'r'
(dp64
S'red'
p65
I1
sS'ray'
p66
I1
ssS't'
(dp67
S'tor'
p68
I1
sS'tube'
p69
I1
sS'type'
p70
I1
sS'type i'
p71
I1
ssS'v'
(dp72
S'van'
p73
I1
ss.