(dp1
S'20668652'
p2
(dp3
S'3:3:7:5'
p4
I16
sS'3:3:7:3'
p5
I15
sS'3:3:7:1'
p6
I14
sS'3:7:13:3'
p7
I105
sS'3:7:19:3'
p8
I114
sS'3:3:3:3'
p9
I8
sS'3:3:3:1'
p10
I7
sS'3:3:3:7'
p11
I10
sS'3:7:19:1'
p12
I113
sS'3:7:7:9'
p13
I97
sS'3:5:17:5'
p14
I85
sS'3:3:7:7:3:3'
p15
I17
sS'3:5:17:7'
p16
I86
sS'3:3:11:5:3:3'
p17
I27
sS'3:3:21:5:3:3'
p18
I55
sS'3:7:7:3'
p19
I94
sS'3:7:29:1'
p20
I125
sS'3:7:29:3'
p21
I126
sS'3:7:7:1'
p22
I93
sS'3:7:13:1'
p23
I104
sS'3:3:11:15'
p24
I32
sS'3:3:23:9:3:3'
p25
I61
sS'3:3:3:9:3:3'
p26
I11
sS'3:5:17:1'
p27
I83
sS'3:7:27:3'
p28
I124
sS'3:7:27:1'
p29
I123
sS'1:23:1:3:1:9:3:4'
p30
I0
sS'3:7:25:1'
p31
I121
sS'3:7:25:3'
p32
I122
sS'3:7:23:3'
p33
I120
sS'3:7:23:1'
p34
I119
sS'1:27:1:3:1'
p35
I1
sS'3:7:21:5'
p36
I118
sS'3:7:21:1'
p37
I116
sS'3:7:21:3'
p38
I117
sS'5:3:3:1'
p39
I137
sS'5:3:5:1'
p40
I138
sS'3:3:9:11:3:3'
p41
I23
sS'3:3:19:5:3:3'
p42
I49
sS'3:9:7:4:1:1'
p43
I135
sS'3:3:9:9'
p44
I22
sS'3:3:9:1'
p45
I18
sS'3:3:9:3'
p46
I19
sS'3:3:9:5'
p47
I20
sS'3:3:9:7'
p48
I21
sS'3:3:15:5:3:3'
p49
I39
sS'3:7:5:7'
p50
I92
sS'3:7:11:3'
p51
I101
sS'3:3:11:13'
p52
I31
sS'3:9:5:4:1:1'
p53
I132
sS'3:3:19:9'
p54
I51
sS'3:3:5:1'
p55
I12
sS'3:3:5:3'
p56
I13
sS'3:3:19:1'
p57
I47
sS'3:3:19:3'
p58
I48
sS'3:3:19:7'
p59
I50
sS'3:3:17:7'
p60
I46
sS'3:1:11'
p61
I6
sS'3:5:17:3'
p62
I84
sS'3:3:13:7:3:3'
p63
I36
sS'3:3:17:1'
p64
I43
sS'3:3:13:3'
p65
I34
sS'3:3:13:1'
p66
I33
sS'3:7:7:7'
p67
I96
sS'3:3:13:5'
p68
I35
sS'3:1:3'
p69
I2
sS'3:1:7'
p70
I4
sS'3:7:9:1'
p71
I98
sS'3:1:5'
p72
I3
sS'3:7:9:3'
p73
I99
sS'3:1:9'
p74
I5
sS'3:3:19:11'
p75
I52
sS'3:3:11:1'
p76
I25
sS'3:3:11:3'
p77
I26
sS'3:3:11:7'
p78
I28
sS'3:3:11:9'
p79
I29
sS'3:3:23:15'
p80
I64
sS'3:3:23:13'
p81
I63
sS'3:3:23:11'
p82
I62
sS'3:7:15:1'
p83
I106
sS'3:7:15:3'
p84
I107
sS'3:7:15:5'
p85
I108
sS'3:7:15:7'
p86
I109
sS'3:7:15:9'
p87
I110
sS'3:5:13:1'
p88
I79
sS'3:5:13:3'
p89
I80
sS'3:7:19:5'
p90
I115
sS'3:5:11:3'
p91
I78
sS'3:5:11:1'
p92
I77
sS'3:5:15:3'
p93
I82
sS'3:5:15:1'
p94
I81
sS'3:5:5'
p95
I66
sS'3:5:3'
p96
I65
sS'3:3:15:9'
p97
I41
sS'3:3:15:7'
p98
I40
sS'3:3:15:1'
p99
I37
sS'3:3:15:3'
p100
I38
sS'3:7:7:5'
p101
I95
sS'3:3:23:3'
p102
I58
sS'3:7:11:5'
p103
I102
sS'3:3:23:1'
p104
I57
sS'3:7:11:7'
p105
I103
sS'3:3:23:7'
p106
I60
sS'3:7:11:1'
p107
I100
sS'3:3:23:5'
p108
I59
sS'3:3:3:5:3:3'
p109
I9
sS'3:5:7:1'
p110
I67
sS'3:5:7:3'
p111
I68
sS'3:5:7:5'
p112
I69
sS'3:5:7:7'
p113
I70
sS'3:3:21:1'
p114
I53
sS'3:7:17:3'
p115
I112
sS'3:3:21:3'
p116
I54
sS'3:7:17:1'
p117
I111
sS'3:3:21:7'
p118
I56
sS'3:3:15:11'
p119
I42
sS'3:5:9:11'
p120
I76
sS'3:9:3:4:1:1'
p121
I129
sS'3:9:7:3:3'
p122
I134
sS'3:9:7:3:1'
p123
I133
sS'3:9:5:3:1'
p124
I130
sS'3:9:5:3:3'
p125
I131
sS'3:3:9:13'
p126
I24
sS'3:3:11:11'
p127
I30
sS'5:1:3'
p128
I136
sS'3:5:9:9'
p129
I75
sS'3:9:3:3:3'
p130
I128
sS'3:5:9:7'
p131
I74
sS'3:9:3:3:1'
p132
I127
sS'3:5:9:5'
p133
I73
sS'3:5:9:3'
p134
I72
sS'3:5:9:1'
p135
I71
sS'3:3:17:5:3:3'
p136
I45
sS'3:7:5:5'
p137
I91
sS'3:3:17:3'
p138
I44
sS'3:7:5:1'
p139
I89
sS'3:7:5:3'
p140
I90
sS'3:7:3:3'
p141
I88
sS'3:7:3:1'
p142
I87
ssS'22833096'
p143
(dp144
S'3:11:23:3'
p145
I43
sS'3:11:23:1'
p146
I42
sS'3:11:17:3'
p147
I37
sS'3:11:3:3'
p148
I23
sS'3:7:7:3'
p149
I10
sS'3:11:27:1'
p150
I46
sS'3:7:7:1'
p151
I9
sS'3:7:11:1'
p152
I13
sS'7:15:3:1'
p153
I82
sS'3:7:11:3'
p154
I14
sS'5:11:11:2:1:1'
p155
I64
sS'3:11:17:1'
p156
I36
sS'3:7:13:3'
p157
I17
sS'5:3:3:1:11:3:1'
p158
I56
sS'3:7:13:1'
p159
I16
sS'5:11:5:2:1:1'
p160
I61
sS'3:11:7:3'
p161
I27
sS'3:11:7:1'
p162
I26
sS'5:11:3:2:1:1'
p163
I60
sS'7:17:3:1'
p164
I83
sS'5:7:3'
p165
I59
sS'5:11:9:2:1:1'
p166
I63
sS'7:9:3:1'
p167
I79
sS'7:7:3:1'
p168
I78
sS'3:7:9:1'
p169
I11
sS'3:7:9:3'
p170
I12
sS'7:13:3:1'
p171
I81
sS'3:11:29:1'
p172
I48
sS'3:11:19:1'
p173
I38
sS'3:11:13:1'
p174
I32
sS'3:11:19:3'
p175
I39
sS'3:11:25:1'
p176
I44
sS'3:11:27:3'
p177
I47
sS'3:11:25:3'
p178
I45
sS'7:11:3:1'
p179
I80
sS'3:7:11:5'
p180
I15
sS'5:11:33:2:1:1'
p181
I75
sS'5:11:31:2:1:1'
p182
I74
sS'5:3:3:1:1:3:1'
p183
I51
sS'5:3:3:1:3:3:1'
p184
I52
sS'5:5:5:1'
p185
I58
sS'3:11:5:1'
p186
I24
sS'5:11:13:2:1:1'
p187
I65
sS'3:11:5:3'
p188
I25
sS'3:11:3:1'
p189
I22
sS'7:3:3:1'
p190
I76
sS'3:11:29:3'
p191
I49
sS'1:1:1:3:3:5:3:1'
p192
I0
sS'5:11:25:2:1:1'
p193
I71
sS'5:11:29:2:1:1'
p194
I73
sS'5:11:17:2:1:1'
p195
I67
sS'3:11:15:1'
p196
I34
sS'5:11:23:2:1:1'
p197
I70
sS'3:11:15:3'
p198
I35
sS'3:11:9:1'
p199
I28
sS'5:1:3'
p200
I50
sS'3:11:9:3'
p201
I29
sS'3:3'
p202
I3
sS'3:1'
p203
I2
sS'7:5:3:1'
p204
I77
sS'3:5'
p205
I4
sS'5:11:19:2:1:1'
p206
I68
sS'3:9:9'
p207
I21
sS'3:11:11:1'
p208
I30
sS'1:31:1:3:1'
p209
I1
sS'3:11:11:3'
p210
I31
sS'3:9:3'
p211
I18
sS'5:11:27:2:1:1'
p212
I72
sS'5:3:3:1:5:3:1'
p213
I53
sS'3:9:7'
p214
I20
sS'3:9:5'
p215
I19
sS'5:3:3:1:7:3:1'
p216
I54
sS'3:11:13:3'
p217
I33
sS'5:5:3:1'
p218
I57
sS'5:11:15:2:1:1'
p219
I66
sS'5:3:3:1:9:3:1'
p220
I55
sS'5:11:21:2:1:1'
p221
I69
sS'3:7:5:1'
p222
I7
sS'5:11:7:2:1:1'
p223
I62
sS'3:7:5:3'
p224
I8
sS'3:11:21:1'
p225
I40
sS'3:7:3:3'
p226
I6
sS'3:11:21:3'
p227
I41
sS'3:7:3:1'
p228
I5
ssS'16009723'
p229
(dp230
S'3:1:13'
p231
I9
sS'3:1:11'
p232
I8
sS'1:23:1:3:1:1:1'
p233
I2
sS'3:3:7:3'
p234
I20
sS'3:3:7:1'
p235
I19
sS'1:23:1:3:1:3:1'
p236
I3
sS'3:3:13:1'
p237
I29
sS'3:3:3:5:3:1'
p238
I12
sS'3:7:11:3'
p239
I50
sS'3:3:3:3'
p240
I11
sS'3:3:3:1'
p241
I10
sS'3:7:13:3'
p242
I54
sS'3:7:13:1'
p243
I53
sS'3:3:11:9:3:1'
p244
I28
sS'3:1:3'
p245
I4
sS'3:3:13:7:7:1:1'
p246
I32
sS'3:1:7'
p247
I6
sS'3:7:9:1'
p248
I47
sS'3:1:5'
p249
I5
sS'3:7:9:3'
p250
I48
sS'3:1:9'
p251
I7
sS'3:3:11:5:3:1'
p252
I26
sS'3:7:11:5'
p253
I51
sS'3:3:11:1'
p254
I24
sS'3:3:11:3'
p255
I25
sS'3:5:9'
p256
I37
sS'3:3:9:1'
p257
I21
sS'3:5:7'
p258
I36
sS'1:17:1:3:1:3:3:2'
p259
I0
sS'3:3:13:5:3:1'
p260
I31
sS'3:3:5:5:7:1:1'
p261
I17
sS'3:7:15:1'
p262
I55
sS'3:5:15'
p263
I40
sS'3:7:7:1'
p264
I45
sS'3:5:13'
p265
I39
sS'3:5:11'
p266
I38
sS'3:3:3:7:3:1'
p267
I13
sS'3:3:13:9'
p268
I33
sS'3:3:3:9:3:1'
p269
I14
sS'3:3:9:3'
p270
I22
sS'3:7:7:3'
p271
I46
sS'3:3:9:5'
p272
I23
sS'3:7:11:1'
p273
I49
sS'5:1:5'
p274
I58
sS'3:3:11:7'
p275
I27
sS'5:1:3'
p276
I57
sS'3:5:3'
p277
I34
sS'3:5:5:3:1'
p278
I35
sS'1:21:1:3:1'
p279
I1
sS'3:7:15:3'
p280
I56
sS'3:3:5:7'
p281
I18
sS'3:3:5:1'
p282
I15
sS'3:7:11:10'
p283
I52
sS'3:3:5:3'
p284
I16
sS'3:7:5:1'
p285
I43
sS'3:7:5:3'
p286
I44
sS'3:3:13:3'
p287
I30
sS'3:7:3:3'
p288
I42
sS'3:7:3:1'
p289
I41
ssS'14557412'
p290
(dp291
S'3:5:7:5:3:1'
p292
I44
sS'3:5:13:11'
p293
I63
sS'3:5:3:5:3:1'
p294
I34
sS'3:7:11'
p295
I68
sS'3:3:7:3'
p296
I14
sS'3:7:13'
p297
I69
sS'3:3:7:1'
p298
I13
sS'3:3:23:3'
p299
I31
sS'3:3:13:3'
p300
I21
sS'3:3:23:1'
p301
I30
sS'3:3:13:1'
p302
I20
sS'3:5:11:9:3:1'
p303
I55
sS'3:3:3:3'
p304
I7
sS'3:3:3:1'
p305
I6
sS'3:5:7:7'
p306
I45
sS'3:3:3:7'
p307
I9
sS'3:3:3:5'
p308
I8
sS'3:3:21:1'
p309
I28
sS'3:5:7:9'
p310
I46
sS'3:3:21:3'
p311
I29
sS'3:5:3:3'
p312
I33
sS'3:5:5:5:3:1'
p313
I38
sS'3:3:17:3'
p314
I25
sS'3:1:3'
p315
I3
sS'1:29:1:3:1'
p316
I1
sS'3:5:5:1'
p317
I36
sS'3:1:7'
p318
I5
sS'3:5:5:7'
p319
I39
sS'3:1:5'
p320
I4
sS'3:5:11:3'
p321
I52
sS'3:3:17:1'
p322
I24
sS'3:5:3:7'
p323
I35
sS'1:31:1:3:1:1:1'
p324
I2
sS'3:3:11:1'
p325
I17
sS'3:3:11:3'
p326
I18
sS'3:3:11:5'
p327
I19
sS'3:5:9:5:3:1'
p328
I49
sS'3:3:9:1'
p329
I15
sS'3:5:11:5:3:1'
p330
I53
sS'3:5:13:7'
p331
I61
sS'3:5:13:9'
p332
I62
sS'3:5:5:3'
p333
I37
sS'1:25:1:3:1:9:3:2'
p334
I0
sS'3:3:9:3'
p335
I16
sS'3:5:13:1'
p336
I58
sS'3:5:13:3'
p337
I59
sS'3:7:5'
p338
I65
sS'3:5:11:7'
p339
I54
sS'3:7:7'
p340
I66
sS'3:5:5:11'
p341
I41
sS'3:7:3'
p342
I64
sS'3:5:11:1'
p343
I51
sS'3:5:9:7'
p344
I50
sS'3:7:15'
p345
I70
sS'3:7:9'
p346
I67
sS'3:5:9:3'
p347
I48
sS'3:5:9:1'
p348
I47
sS'5:1:5'
p349
I72
sS'3:5:11:11'
p350
I56
sS'3:5:7:1'
p351
I42
sS'3:5:3:1'
p352
I32
sS'3:5:11:13'
p353
I57
sS'3:5:5:9'
p354
I40
sS'3:3:5:5'
p355
I12
sS'3:5:7:3'
p356
I43
sS'3:3:5:1'
p357
I10
sS'3:3:5:3'
p358
I11
sS'5:1:3'
p359
I71
sS'3:3:19:1'
p360
I26
sS'3:3:19:3'
p361
I27
sS'3:3:15:1'
p362
I22
sS'3:5:13:5:3:1'
p363
I60
sS'3:3:15:3'
p364
I23
ssS'11524436'
p365
(dp366
S'3:7:7:5'
p367
I58
sS'3:3:7:5'
p368
I20
sS'3:3:7:3'
p369
I19
sS'3:3:7:1'
p370
I18
sS'5:5:3:1'
p371
I66
sS'3:7:5:3'
p372
I55
sS'3:3:11:15'
p373
I41
sS'3:3:3:5:3:1'
p374
I10
sS'3:3:7:9'
p375
I22
sS'3:7:7:3'
p376
I57
sS'3:3:3:3'
p377
I9
sS'3:7:7:7'
p378
I59
sS'3:3:3:1'
p379
I8
sS'3:3:3:7'
p380
I11
sS'3:3:11:7'
p381
I37
sS'3:5:13'
p382
I50
sS'3:3:7:11:3:1'
p383
I23
sS'3:7:7:11'
p384
I61
sS'3:3:3:11'
p385
I13
sS'3:1:3'
p386
I4
sS'3:3:11:9:3:1'
p387
I38
sS'3:1:7'
p388
I6
sS'3:7:9:1'
p389
I62
sS'3:1:5'
p390
I5
sS'3:7:9:3'
p391
I63
sS'3:1:9'
p392
I7
sS'3:3:7:7:3:1'
p393
I21
sS'3:3:11:5:3:1'
p394
I36
sS'3:3:11:1'
p395
I34
sS'3:3:11:3'
p396
I35
sS'3:5:9'
p397
I48
sS'3:3:7:15:3:1'
p398
I25
sS'3:5:7'
p399
I47
sS'3:5:5'
p400
I46
sS'3:3:7:13'
p401
I24
sS'3:5:3'
p402
I45
sS'3:3:11:19'
p403
I43
sS'3:7:7:1'
p404
I56
sS'3:3:11:21:3:1'
p405
I44
sS'3:5:11'
p406
I49
sS'3:3:3:9:3:1'
p407
I12
sS'3:3:9:3'
p408
I27
sS'1:33:1:3:1:1:1'
p409
I2
sS'3:3:11:11'
p410
I39
sS'3:3:9:7'
p411
I29
sS'5:1:5'
p412
I65
sS'3:3:9:13'
p413
I32
sS'3:3:9:11'
p414
I31
sS'5:1:3'
p415
I64
sS'3:3:9:15'
p416
I33
sS'3:3:9:5:3:1'
p417
I28
sS'1:33:1:3:1:3:1'
p418
I3
sS'3:7:3:5'
p419
I53
sS'1:31:1:3:1'
p420
I1
sS'3:3:11:13'
p421
I40
sS'3:3:9:1'
p422
I26
sS'3:3:9:9:3:1'
p423
I30
sS'1:27:1:3:1:7:3:2'
p424
I0
sS'3:3:5:5'
p425
I16
sS'3:3:5:7'
p426
I17
sS'3:3:5:1'
p427
I14
sS'3:3:5:3'
p428
I15
sS'3:7:5:1'
p429
I54
sS'3:3:11:17:3:1'
p430
I42
sS'3:7:7:9'
p431
I60
sS'3:7:3:3'
p432
I52
sS'3:7:3:1'
p433
I51
ssS'19050761'
p434
(dp435
S'3:3:7:7'
p436
I19
sS'1:19:1:3:5:1'
p437
I5
sS'1:19:1:3:5:3'
p438
I6
sS'3:7:7:1'
p439
I38
sS'3:3:13:3'
p440
I28
sS'3:3:13:1'
p441
I27
sS'3:3:9:5:3:3'
p442
I22
sS'3:3:3:5:3:3'
p443
I12
sS'3:7:17:3'
p444
I49
sS'3:3:3:3'
p445
I11
sS'3:9:5:4:1:1'
p446
I56
sS'3:3:3:1'
p447
I10
sS'3:7:13:3'
p448
I45
sS'3:7:13:1'
p449
I44
sS'3:3:11:7'
p450
I26
sS'3:3:5:5:3:3'
p451
I15
sS'3:9:9:3:3'
p452
I61
sS'3:7:17:1'
p453
I48
sS'3:3:7:3'
p454
I17
sS'3:1:3'
p455
I7
sS'3:3:7:5:3:3'
p456
I18
sS'3:1:7'
p457
I9
sS'3:7:9:1'
p458
I40
sS'3:1:5'
p459
I8
sS'3:7:9:3'
p460
I41
sS'3:3:7:1'
p461
I16
sS'3:9:5:3:1'
p462
I54
sS'3:3:11:5:3:3'
p463
I25
sS'3:3:11:1'
p464
I23
sS'3:3:11:3'
p465
I24
sS'3:3:9:1'
p466
I20
sS'3:5:7'
p467
I33
sS'3:5:5'
p468
I32
sS'1:15:1:3:1:7:3:4'
p469
I0
sS'3:9:9:3:1'
p470
I60
sS'3:9:7:4:1:1'
p471
I59
sS'3:7:15:1'
p472
I46
sS'3:3:9:3'
p473
I21
sS'3:9:7:3:3'
p474
I58
sS'3:9:7:3:1'
p475
I57
sS'1:19:1:3:1:1'
p476
I1
sS'3:7:11:3'
p477
I43
sS'1:19:1:3:1:3'
p478
I2
sS'3:7:7:3'
p479
I39
sS'3:9:5:3:3'
p480
I55
sS'3:7:11:1'
p481
I42
sS'3:9:3:4:1:1'
p482
I53
sS'1:19:1:3:3:3'
p483
I4
sS'1:19:1:3:3:1'
p484
I3
sS'3:7:19:1'
p485
I50
sS'3:7:19:3'
p486
I51
sS'3:9:3:3:1'
p487
I52
sS'3:3:13:5'
p488
I29
sS'3:3:13:7:3:3'
p489
I30
sS'5:3:5:1'
p490
I64
sS'3:5:3'
p491
I31
sS'3:7:15:3'
p492
I47
sS'3:9:9:4:1:1'
p493
I62
sS'3:3:5:1'
p494
I13
sS'5:3:3:1'
p495
I63
sS'3:3:5:3'
p496
I14
sS'3:7:5:1'
p497
I36
sS'3:7:5:3'
p498
I37
sS'3:7:3:3'
p499
I35
sS'3:7:3:1'
p500
I34
ssS'18583988'
p501
(dp502
S'3:9:3:1:1'
p503
I24
sS'3:3:7:5'
p504
I13
sS'3:3:7:3'
p505
I12
sS'3:3:7:1'
p506
I11
sS'7:9:3:1'
p507
I30
sS'7:3:3:1'
p508
I27
sS'3:3:3:3'
p509
I5
sS'3:3:3:1'
p510
I4
sS'3:3:3:5'
p511
I6
sS'5:3:3:1'
p512
I26
sS'3:1:3'
p513
I2
sS'7:7:3:1'
p514
I29
sS'3:1:5'
p515
I3
sS'3:5:9'
p516
I20
sS'1:1:1:3:3:5:3:1'
p517
I0
sS'3:5:7'
p518
I19
sS'3:5:5'
p519
I18
sS'3:5:3'
p520
I17
sS'3:3:9:1'
p521
I14
sS'3:3:9:3'
p522
I15
sS'3:3:9:5'
p523
I16
sS'3:7:5'
p524
I22
sS'3:7:7'
p525
I23
sS'3:7:3'
p526
I21
sS'7:5:3:1'
p527
I28
sS'1:17:1:3:1'
p528
I1
sS'3:3:5:5'
p529
I9
sS'3:3:5:7'
p530
I10
sS'3:3:5:1'
p531
I7
sS'3:3:5:3'
p532
I8
sS'5:1:3'
p533
I25
ssS'11238593'
p534
(dp535
S'3:5:3:5'
p536
I18
sS'3:5:5:9'
p537
I23
sS'3:3:7:3'
p538
I9
sS'3:3:7:1'
p539
I8
sS'3:3:13:3'
p540
I15
sS'3:3:13:1'
p541
I14
sS'7:9:3:1'
p542
I32
sS'7:3:3:1'
p543
I29
sS'3:3:3:3'
p544
I5
sS'3:3:3:1'
p545
I4
sS'3:5:3:1'
p546
I16
sS'3:1:3'
p547
I1
sS'1:29:1:3:1'
p548
I0
sS'3:5:5:1'
p549
I19
sS'3:1:7'
p550
I3
sS'3:5:5:7'
p551
I22
sS'3:1:5'
p552
I2
sS'3:5:5:5'
p553
I21
sS'3:5:3:3'
p554
I17
sS'3:3:11:1'
p555
I12
sS'3:3:11:3'
p556
I13
sS'3:5:5:3'
p557
I20
sS'3:3:9:1'
p558
I10
sS'3:3:9:3'
p559
I11
sS'5:1:5'
p560
I28
sS'3:5:5:15'
p561
I26
sS'7:7:3:1'
p562
I31
sS'3:5:5:11'
p563
I24
sS'5:1:3'
p564
I27
sS'3:5:5:13'
p565
I25
sS'7:5:3:1'
p566
I30
sS'3:3:5:1'
p567
I6
sS'3:3:5:3'
p568
I7
ssS'23142775'
p569
(dp570
S'3:5:3:1'
p571
I5
sS'3:5:3:3'
p572
I6
sS'7:9:3:1'
p573
I31
sS'7:3:3:1'
p574
I28
sS'3:5:7:1'
p575
I10
sS'3:5:7:3'
p576
I11
sS'3:5:7:5'
p577
I12
sS'7:5:3:1'
p578
I29
sS'7:7:3:1'
p579
I30
sS'5:3:3:1'
p580
I23
sS'1:35:1:3:1:11:3:2'
p581
I1
sS'3:5:5:3'
p582
I8
sS'3:5:5:1'
p583
I7
sS'3:5:5:5'
p584
I9
sS'7:13:3:1'
p585
I33
sS'5:3:3:3'
p586
I24
sS'7:11:3:1'
p587
I32
sS'7:15:3:1'
p588
I34
sS'1:39:1:3:1'
p589
I2
sS'3:7:5'
p590
I18
sS'3:7:7'
p591
I19
sS'5:3:5:1'
p592
I25
sS'3:5:11:3'
p593
I16
sS'3:7:3'
p594
I17
sS'3:5:11:1'
p595
I15
sS'3:3'
p596
I4
sS'1:1:1:3:3:1:3:1'
p597
I0
sS'3:7:9'
p598
I20
sS'3:5:9:3'
p599
I14
sS'3:5:9:1'
p600
I13
sS'5:3:7:1'
p601
I26
sS'3:9:3'
p602
I21
sS'5:3:7:3'
p603
I27
sS'5:1:3'
p604
I22
sS'3:1'
p605
I3
ssS'21763421'
p606
(dp607
S'3:7:15'
p608
I46
sS'3:3:7:7'
p609
I10
sS'3:7:17'
p610
I47
sS'3:3:7:5'
p611
I9
sS'3:7:11'
p612
I44
sS'3:5:17:5'
p613
I40
sS'3:7:13'
p614
I45
sS'3:3:7:1'
p615
I8
sS'7:9:3:1'
p616
I53
sS'3:3:13:1'
p617
I16
sS'3:7:19'
p618
I48
sS'1:25:1:3:1'
p619
I2
sS'7:15:3:1'
p620
I56
sS'3:3:7:9'
p621
I11
sS'3:5:7:1'
p622
I25
sS'3:3:17:5'
p623
I21
sS'3:5:7:5'
p624
I26
sS'7:7:3:1'
p625
I52
sS'3:5:5:1'
p626
I22
sS'3:1:7'
p627
I4
sS'3:5:5:7'
p628
I24
sS'3:1:5'
p629
I3
sS'3:5:5:5'
p630
I23
sS'7:13:3:1'
p631
I55
sS'3:1:9'
p632
I5
sS'1:23:1:3:1'
p633
I1
sS'3:3:17:1'
p634
I20
sS'3:3:11:1'
p635
I14
sS'7:11:3:1'
p636
I54
sS'3:3:11:5'
p637
I15
sS'1:1:1:3:3:5:3:1'
p638
I0
sS'3:5:11:9'
p639
I32
sS'5:3:3'
p640
I49
sS'3:3:9:1'
p641
I12
sS'3:5:17:1'
p642
I39
sS'3:3:9:5'
p643
I13
sS'3:5:13:5'
p644
I34
sS'3:5:13:1'
p645
I33
sS'3:7:5'
p646
I41
sS'3:5:11:7'
p647
I31
sS'3:7:7'
p648
I42
sS'3:5:11:5'
p649
I30
sS'3:5:11:1'
p650
I29
sS'7:5:3:1'
p651
I51
sS'3:3:13:5'
p652
I17
sS'3:7:9'
p653
I43
sS'3:5:15:7'
p654
I37
sS'3:5:9:1'
p655
I27
sS'3:5:15:5'
p656
I36
sS'3:5:15:1'
p657
I35
sS'3:3:5:5'
p658
I7
sS'3:5:15:9'
p659
I38
sS'7:3:3:1'
p660
I50
sS'3:3:5:1'
p661
I6
sS'3:3:15:5'
p662
I19
sS'3:3:15:1'
p663
I18
sS'3:5:9:5'
p664
I28
ssS'12507995'
p665
(dp666
S'3:3:7:7'
p667
I16
sS'3:3:7:3'
p668
I14
sS'3:3:7:1'
p669
I13
sS'5:5:3:1'
p670
I61
sS'3:3:13:3'
p671
I29
sS'3:3:13:1'
p672
I28
sS'3:3:3:5:3:1'
p673
I8
sS'3:3:9:5:3:1'
p674
I19
sS'3:3:3:3'
p675
I7
sS'3:3:3:1'
p676
I6
sS'3:3:5:5:3:1'
p677
I11
sS'3:7:5:3'
p678
I50
sS'3:1:3'
p679
I2
sS'3:3:7:5:3:1'
p680
I15
sS'3:1:7'
p681
I4
sS'3:7:9:1'
p682
I54
sS'3:1:5'
p683
I3
sS'3:7:9:3'
p684
I55
sS'3:7:11:1'
p685
I56
sS'3:1:9'
p686
I5
sS'3:3:11:5:3:1'
p687
I24
sS'3:7:11:5'
p688
I58
sS'3:3:11:1'
p689
I22
sS'3:3:11:3'
p690
I23
sS'3:5:9'
p691
I39
sS'3:3:11:7'
p692
I25
sS'3:5:7'
p693
I38
sS'3:3:11:9'
p694
I26
sS'3:5:5'
p695
I37
sS'3:5:3'
p696
I36
sS'3:3:13:5:3:1'
p697
I30
sS'3:5:17'
p698
I43
sS'3:3:9:9'
p699
I21
sS'3:5:15'
p700
I42
sS'3:7:7:1'
p701
I52
sS'3:5:11'
p702
I40
sS'3:3:9:1'
p703
I17
sS'3:3:9:3'
p704
I18
sS'3:7:7:3'
p705
I53
sS'3:5:19'
p706
I44
sS'3:3:9:7'
p707
I20
sS'3:3:13:15:3:1'
p708
I35
sS'3:3:11:11'
p709
I27
sS'5:1:3'
p710
I59
sS'3:7:5:1'
p711
I49
sS'3:7:5:5'
p712
I51
sS'5:1:5'
p713
I60
sS'3:7:3:5'
p714
I47
sS'3:7:11:3'
p715
I57
sS'3:3:13:9:3:1'
p716
I32
sS'3:3:13:13'
p717
I34
sS'1:27:1:3:1'
p718
I1
sS'3:3:13:11'
p719
I33
sS'3:3:5:7'
p720
I12
sS'3:3:13:7'
p721
I31
sS'3:3:5:1'
p722
I9
sS'3:5:13:3:1'
p723
I41
sS'3:3:5:3'
p724
I10
sS'3:7:3:7'
p725
I48
sS'3:7:3:1'
p726
I45
sS'3:7:3:3'
p727
I46
sS'1:23:1:3:1:9:3:2'
p728
I0
ssS'12538665'
p729
(dp730
S'1:23:1:3:1'
p731
I1
sS'3:3:7:3'
p732
I11
sS'3:5:3:3'
p733
I18
sS'3:5:9:5:3:1'
p734
I29
sS'3:5:9:9'
p735
I31
sS'3:3:3:3'
p736
I7
sS'3:3:3:1'
p737
I6
sS'1:25:1:3:1:1:1'
p738
I2
sS'3:5:9:11:3:1'
p739
I32
sS'3:5:3:5:3:1'
p740
I19
sS'3:5:3:1'
p741
I17
sS'3:1:3'
p742
I4
sS'3:5:5:3'
p743
I21
sS'3:5:5:1'
p744
I20
sS'3:1:5'
p745
I5
sS'3:5:5:5'
p746
I22
sS'3:3:7:1'
p747
I10
sS'3:3:11:1'
p748
I14
sS'3:3:11:3'
p749
I15
sS'1:19:1:3:1:5:3:2'
p750
I0
sS'3:3:11:5'
p751
I16
sS'1:25:1:3:1:3:1'
p752
I3
sS'3:3:9:1'
p753
I12
sS'3:3:9:3'
p754
I13
sS'5:1:5'
p755
I35
sS'5:1:3'
p756
I34
sS'3:5:5:7:3:1'
p757
I23
sS'3:5:9:7'
p758
I30
sS'3:5:9:13'
p759
I33
sS'3:5:9:3'
p760
I28
sS'3:5:9:1'
p761
I27
sS'3:5:7:1'
p762
I25
sS'3:5:5:9'
p763
I24
sS'3:5:7:3'
p764
I26
sS'3:3:5:1'
p765
I8
sS'3:3:5:3'
p766
I9
ssS'16461339'
p767
(dp768
S'3:5:3:7'
p769
I8
sS'3:5:3:1'
p770
I5
sS'3:5:3:3'
p771
I6
sS'3:5:9:5:3:1'
p772
I19
sS'3:7:7:1'
p773
I24
sS'1:25:1:3:1'
p774
I1
sS'1:27:1:3:1:1:1'
p775
I2
sS'3:5:7:1'
p776
I14
sS'3:5:7:3'
p777
I15
sS'3:5:5:9:3:1'
p778
I13
sS'3:5:5:5:3:1'
p779
I11
sS'3:5:5:3'
p780
I10
sS'3:5:5:1'
p781
I9
sS'3:5:5:7'
p782
I12
sS'3:7:9:3'
p783
I27
sS'3:5:3:5:3:1'
p784
I7
sS'3:7:7:3'
p785
I25
sS'3:5:7:5:3:1'
p786
I16
sS'3:7:11:1'
p787
I28
sS'5:1:5'
p788
I31
sS'5:1:7'
p789
I32
sS'3:7:9:1'
p790
I26
sS'1:21:1:3:1:3:3:2'
p791
I0
sS'3:3'
p792
I4
sS'3:1'
p793
I3
sS'3:5:9:3'
p794
I18
sS'3:5:9:1'
p795
I17
sS'3:7:11:3'
p796
I29
sS'5:1:3'
p797
I30
sS'3:7:5:1'
p798
I22
sS'3:7:5:3'
p799
I23
sS'3:7:3:3'
p800
I21
sS'3:7:3:1'
p801
I20
ssS'18411307'
p802
(dp803
S'3:1:13'
p804
I10
sS'3:1:11'
p805
I9
sS'3:3:7:3'
p806
I19
sS'3:3:7:1'
p807
I18
sS'3:7:13:3'
p808
I51
sS'1:25:1:3:1:5:1'
p809
I4
sS'3:3:13:1'
p810
I31
sS'3:3:3:5:3:1'
p811
I13
sS'3:3:9:5:3:1'
p812
I23
sS'3:3:3:3'
p813
I12
sS'3:3:3:1'
p814
I11
sS'1:25:1:3:1:1:1'
p815
I2
sS'3:7:13:1'
p816
I50
sS'3:7:17:3'
p817
I55
sS'3:3:5:5:3:1'
p818
I17
sS'3:1:3'
p819
I5
sS'3:3:7:5:3:1'
p820
I20
sS'3:7:17:1'
p821
I54
sS'3:1:7'
p822
I7
sS'3:7:9:1'
p823
I46
sS'3:1:5'
p824
I6
sS'3:7:9:3'
p825
I47
sS'3:7:11:1'
p826
I48
sS'3:1:9'
p827
I8
sS'1:23:1:3:1'
p828
I1
sS'3:7:15:1'
p829
I52
sS'3:3:11:5:3:1'
p830
I30
sS'3:3:11:1'
p831
I28
sS'3:3:9:13:3:1'
p832
I27
sS'3:3:13:3'
p833
I32
sS'3:5:7'
p834
I35
sS'3:3:9:11:3:1'
p835
I26
sS'3:5:5'
p836
I34
sS'3:5:3'
p837
I33
sS'1:25:1:3:1:3:1'
p838
I3
sS'3:3:9:9'
p839
I25
sS'3:5:15'
p840
I39
sS'3:7:7:1'
p841
I44
sS'3:5:13'
p842
I38
sS'3:5:11'
p843
I37
sS'3:3:9:1'
p844
I21
sS'3:3:9:3'
p845
I22
sS'3:7:7:3'
p846
I45
sS'3:3:9:7'
p847
I24
sS'5:1:5'
p848
I57
sS'5:1:3'
p849
I56
sS'3:3:11:3'
p850
I29
sS'3:7:11:3'
p851
I49
sS'1:19:1:3:1:3:3:2'
p852
I0
sS'3:7:5:3'
p853
I43
sS'3:7:15:3'
p854
I53
sS'3:5:9:3:1'
p855
I36
sS'3:3:5:1'
p856
I15
sS'3:3:5:3'
p857
I16
sS'3:7:5:1'
p858
I42
sS'3:7:3:1'
p859
I40
sS'3:7:3:3'
p860
I41
sS'3:3:3:7'
p861
I14
ssS'8642247'
p862
(dp863
S'1:9:1:3:1'
p864
I0
ssS'16397295'
p865
(dp866
S'3:5:3:5'
p867
I26
sS'3:1:11'
p868
I6
sS'3:3:7:3'
p869
I12
sS'5:5:5:3:1'
p870
I52
sS'3:3:7:1'
p871
I11
sS'3:3:13:3'
p872
I19
sS'3:3:13:1'
p873
I18
sS'5:5:3:3:1'
p874
I51
sS'1:25:1:3:1'
p875
I1
sS'5:5:7:3:1'
p876
I53
sS'5:5:13:3:1'
p877
I56
sS'3:3:3:3'
p878
I8
sS'3:3:3:1'
p879
I7
sS'3:5:7:5'
p880
I32
sS'3:5:7:7'
p881
I33
sS'3:5:7:9'
p882
I34
sS'5:5:11:3:1'
p883
I55
sS'3:5:3:3'
p884
I25
sS'3:3:17:3'
p885
I23
sS'3:1:3'
p886
I2
sS'3:5:5:3'
p887
I28
sS'5:5:9:3:1'
p888
I54
sS'3:5:5:1'
p889
I27
sS'3:1:7'
p890
I4
sS'3:1:5'
p891
I3
sS'3:5:5:5'
p892
I29
sS'3:1:9'
p893
I5
sS'3:3:17:1'
p894
I22
sS'3:3:11:1'
p895
I16
sS'3:3:11:3'
p896
I17
sS'1:1:1:3:3:5:3:1'
p897
I0
sS'3:5:15:5'
p898
I44
sS'3:3:9:1'
p899
I13
sS'3:3:9:3'
p900
I14
sS'3:3:9:5'
p901
I15
sS'3:5:13:1'
p902
I40
sS'3:7:5'
p903
I46
sS'3:7:7'
p904
I47
sS'3:5:11:5'
p905
I39
sS'3:5:11:3'
p906
I38
sS'3:7:3'
p907
I45
sS'3:5:11:1'
p908
I37
sS'3:5:15:3'
p909
I43
sS'3:5:13:3'
p910
I41
sS'3:7:9'
p911
I48
sS'3:5:9:3'
p912
I36
sS'3:5:9:1'
p913
I35
sS'5:1:5'
p914
I50
sS'3:5:7:1'
p915
I30
sS'3:5:3:1'
p916
I24
sS'3:5:15:1'
p917
I42
sS'3:5:7:3'
p918
I31
sS'3:3:5:1'
p919
I9
sS'3:3:5:3'
p920
I10
sS'5:1:3'
p921
I49
sS'3:3:15:1'
p922
I20
sS'3:3:15:3'
p923
I21
ssS'10085298'
p924
(dp925
S'5:5:3:1:11:3:1'
p926
I82
sS'3:15:7'
p927
I57
sS'1:21:1:3:1:3:3:2'
p928
I0
sS'3:11:17:3'
p929
I27
sS'5:1:7:3:1'
p930
I69
sS'5:1:17:3:1'
p931
I74
sS'5:5:3:1:3:3:1'
p932
I78
sS'3:11:9:3'
p933
I15
sS'1:25:1:3:1'
p934
I1
sS'3:13:7:5'
p935
I39
sS'3:13:5:7'
p936
I35
sS'5:5:3:1:1:3:1'
p937
I77
sS'3:13:11:3'
p938
I46
sS'3:15:3'
p939
I55
sS'3:11:3:5'
p940
I9
sS'3:13:15:7'
p941
I54
sS'3:11:3:3'
p942
I8
sS'3:13:7:1'
p943
I37
sS'3:11:3:1'
p944
I7
sS'3:15:9'
p945
I58
sS'3:11:7:3'
p946
I13
sS'3:11:7:1'
p947
I12
sS'3:13:3:1'
p948
I30
sS'3:11:15:7'
p949
I25
sS'3:13:3:3'
p950
I31
sS'5:1:5:3:1'
p951
I68
sS'3:13:5:5'
p952
I34
sS'3:13:5:9'
p953
I36
sS'3:13:13:5'
p954
I50
sS'3:11:15:3'
p955
I23
sS'3:13:15:1'
p956
I51
sS'3:13:5:3'
p957
I33
sS'5:1:15:3:1'
p958
I73
sS'3:13:5:1'
p959
I32
sS'3:11:19:1'
p960
I28
sS'3:11:19:3'
p961
I29
sS'5:5:3:1:9:3:1'
p962
I81
sS'5:1:9:3:1'
p963
I70
sS'5:3:5'
p964
I76
sS'5:3:3'
p965
I75
sS'5:5:3:1:7:3:1'
p966
I80
sS'3:13:9:9'
p967
I44
sS'3:11:5:1'
p968
I10
sS'3:11:5:3'
p969
I11
sS'5:1:3:3:1'
p970
I67
sS'5:1:11:3:1'
p971
I71
sS'3:11:17:1'
p972
I26
sS'3:13:13:1'
p973
I48
sS'3:15:21'
p974
I64
sS'5:1:13:3:1'
p975
I72
sS'3:15:23'
p976
I65
sS'3:15:25'
p977
I66
sS'3:11:15:1'
p978
I22
sS'3:13:7:3'
p979
I38
sS'3:11:13:5'
p980
I21
sS'3:11:13:3'
p981
I20
sS'3:11:13:1'
p982
I19
sS'3:3'
p983
I3
sS'5:5:3:1:13:3:1'
p984
I83
sS'3:1'
p985
I2
sS'5:5:3:1:5:3:1'
p986
I79
sS'3:7'
p987
I5
sS'3:5'
p988
I4
sS'3:11:11:5'
p989
I18
sS'3:11:15:5'
p990
I24
sS'3:13:13:3'
p991
I49
sS'3:11:11:1'
p992
I16
sS'3:11:11:3'
p993
I17
sS'3:13:9:7'
p994
I43
sS'3:15:15'
p995
I61
sS'3:13:9:5'
p996
I42
sS'3:13:15:3'
p997
I52
sS'3:13:9:3'
p998
I41
sS'3:13:15:5'
p999
I53
sS'3:13:9:1'
p1000
I40
sS'3:13:11:5'
p1001
I47
sS'3:15:17'
p1002
I62
sS'3:9'
p1003
I6
sS'3:15:11'
p1004
I59
sS'3:15:13'
p1005
I60
sS'3:13:11:1'
p1006
I45
sS'3:15:5'
p1007
I56
sS'3:15:19'
p1008
I63
sS'3:11:9:1'
p1009
I14
ssS'16618811'
p1010
(dp1011
S'3:7:7:5'
p1012
I60
sS'3:3:7:7'
p1013
I29
sS'3:3:13:9'
p1014
I44
sS'3:3:3:11'
p1015
I11
sS'3:3:5:5:7:9:1'
p1016
I20
sS'3:3:3:13'
p1017
I12
sS'3:3:13:3'
p1018
I41
sS'3:3:13:1'
p1019
I40
sS'1:25:1:3:1'
p1020
I1
sS'1:27:1:3:1:1:1'
p1021
I2
sS'3:3:3:3'
p1022
I7
sS'3:3:3:1'
p1023
I6
sS'3:3:3:5'
p1024
I8
sS'3:3:5:5:3:1'
p1025
I15
sS'3:3:7:3'
p1026
I27
sS'3:1:3'
p1027
I3
sS'1:21:1:3:1:5:3:2'
p1028
I0
sS'3:3:3:9'
p1029
I10
sS'3:1:7'
p1030
I5
sS'3:7:9:1'
p1031
I61
sS'3:1:5'
p1032
I4
sS'3:7:9:3'
p1033
I62
sS'3:3:5:5:7:7:1'
p1034
I19
sS'3:3:7:1'
p1035
I26
sS'3:3:11:5:3:1'
p1036
I39
sS'3:3:13:5'
p1037
I42
sS'3:3:11:1'
p1038
I37
sS'3:3:5:5:7:5:1'
p1039
I18
sS'3:3:11:3'
p1040
I38
sS'3:7:7:3'
p1041
I59
sS'3:3:5:5:7:11:1'
p1042
I21
sS'3:5:5'
p1043
I52
sS'3:5:3'
p1044
I51
sS'3:3:5:5:7:1:1'
p1045
I16
sS'3:3:7:9:3:1'
p1046
I30
sS'3:7:7:1'
p1047
I58
sS'3:7:5:3'
p1048
I57
sS'3:3:3:7:3:1'
p1049
I9
sS'3:3:9:1'
p1050
I31
sS'3:3:5:5:7:13:1'
p1051
I22
sS'3:3:9:3'
p1052
I32
sS'3:3:9:7'
p1053
I34
sS'3:3:17:1'
p1054
I49
sS'3:5:7'
p1055
I53
sS'3:3:9:11'
p1056
I36
sS'3:3:7:5:3:1'
p1057
I28
sS'5:1:3'
p1058
I63
sS'3:7:3:3'
p1059
I55
sS'3:3:9:5:3:1'
p1060
I33
sS'3:3:15:1'
p1061
I47
sS'5:1:5'
p1062
I64
sS'3:3:13:11:3:1'
p1063
I45
sS'3:3:5:5:7:3:1'
p1064
I17
sS'3:3:13:7:3:1'
p1065
I43
sS'3:3:5:7:3:1'
p1066
I23
sS'3:3:9:9:3:1'
p1067
I35
sS'3:3:5:11'
p1068
I25
sS'3:3:13:13'
p1069
I46
sS'3:3:17:3'
p1070
I50
sS'3:3:5:1'
p1071
I13
sS'3:3:5:3'
p1072
I14
sS'3:7:5:1'
p1073
I56
sS'3:7:3:1'
p1074
I54
sS'3:3:5:9'
p1075
I24
sS'3:3:15:3'
p1076
I48
ssS'20890305'
p1077
(dp1078
S'3:1:11'
p1079
I6
sS'3:3:7:5'
p1080
I14
sS'3:3:7:3'
p1081
I13
sS'3:3:7:1'
p1082
I12
sS'7:9:3:1'
p1083
I48
sS'3:7:7:3'
p1084
I30
sS'3:7:7:1'
p1085
I29
sS'1:25:1:3:1'
p1086
I1
sS'3:7:11:3'
p1087
I34
sS'3:3:3:3'
p1088
I8
sS'3:3:3:1'
p1089
I7
sS'3:7:13:3'
p1090
I36
sS'3:7:13:1'
p1091
I35
sS'3:7:17:3'
p1092
I40
sS'3:7:17:1'
p1093
I39
sS'5:3:3:1'
p1094
I43
sS'3:1:3'
p1095
I2
sS'7:7:3:1'
p1096
I47
sS'3:1:7'
p1097
I4
sS'3:7:9:1'
p1098
I31
sS'3:1:5'
p1099
I3
sS'3:7:9:3'
p1100
I32
sS'3:1:9'
p1101
I5
sS'5:3:3:3'
p1102
I44
sS'3:3:11:1'
p1103
I17
sS'3:3:11:3'
p1104
I18
sS'3:3:11:5'
p1105
I19
sS'3:5:9'
p1106
I23
sS'3:5:7'
p1107
I22
sS'3:5:5'
p1108
I21
sS'3:5:3'
p1109
I20
sS'3:7:15:1'
p1110
I37
sS'3:7:15:3'
p1111
I38
sS'3:5:11'
p1112
I24
sS'3:3:9:1'
p1113
I15
sS'3:3:9:3'
p1114
I16
sS'3:7:11:1'
p1115
I33
sS'5:1:5'
p1116
I42
sS'5:1:3'
p1117
I41
sS'7:5:3:1'
p1118
I46
sS'1:1:1:3:3:1:3:1'
p1119
I0
sS'3:3:5:5'
p1120
I11
sS'7:11:3:1'
p1121
I49
sS'7:3:3:1'
p1122
I45
sS'3:3:5:1'
p1123
I9
sS'3:3:5:3'
p1124
I10
sS'3:7:5:1'
p1125
I27
sS'3:7:5:3'
p1126
I28
sS'3:7:3:3'
p1127
I26
sS'3:7:3:1'
p1128
I25
ssS'18162042'
p1129
(dp1130
S'3:3:7:3'
p1131
I19
sS'3:3:7:1'
p1132
I18
sS'3:3:3:3'
p1133
I7
sS'3:3:3:1'
p1134
I6
sS'3:3:3:7'
p1135
I10
sS'5:1:3:1:15:3:1'
p1136
I104
sS'3:3:7:5:3:3'
p1137
I20
sS'3:3:7:5:3:5'
p1138
I21
sS'3:3:7:5:3:7'
p1139
I22
sS'3:3:7:5:3:9'
p1140
I23
sS'5:1:3:1:7:3:1'
p1141
I100
sS'3:3:11:5:3:5'
p1142
I32
sS'3:3:11:5:3:3'
p1143
I31
sS'3:3:13:3'
p1144
I36
sS'3:7:29:1'
p1145
I77
sS'3:7:29:3'
p1146
I78
sS'3:5:17'
p1147
I49
sS'3:5:15'
p1148
I48
sS'3:3:13:1'
p1149
I35
sS'3:5:13'
p1150
I47
sS'3:5:11'
p1151
I46
sS'3:3:3:9:3:3'
p1152
I11
sS'3:3:3:9:3:5'
p1153
I12
sS'5:1:3:1:13:3:1'
p1154
I103
sS'3:7:27:3'
p1155
I76
sS'3:7:27:1'
p1156
I75
sS'3:7:25:1'
p1157
I73
sS'3:7:25:3'
p1158
I74
sS'3:7:23:3'
p1159
I72
sS'3:7:23:1'
p1160
I71
sS'3:3:13:5:3:11'
p1161
I41
sS'1:41:1:3:1:1'
p1162
I1
sS'3:7:21:1'
p1163
I69
sS'3:7:21:3'
p1164
I70
sS'5:1:3:1:1:3:1'
p1165
I97
sS'1:43:1:3:1'
p1166
I2
sS'3:3:13:5:3:9'
p1167
I40
sS'3:3:13:5:3:5'
p1168
I38
sS'3:3:13:5:3:7'
p1169
I39
sS'3:3:13:5:3:3'
p1170
I37
sS'3:9:7:4:1:1'
p1171
I93
sS'3:3:9:9'
p1172
I28
sS'5:1:3:1:3:3:1'
p1173
I98
sS'3:3:9:1'
p1174
I24
sS'3:3:9:3'
p1175
I25
sS'3:3:9:7'
p1176
I27
sS'5:1:3:1:11:3:1'
p1177
I102
sS'3:9:7:3:9'
p1178
I92
sS'3:9:5:4:1:1'
p1179
I88
sS'3:3:5:1'
p1180
I14
sS'3:3:11:5:3:7'
p1181
I33
sS'5:5:7:1'
p1182
I108
sS'3:7:7:3'
p1183
I55
sS'3:7:7:1'
p1184
I54
sS'3:7:7:5'
p1185
I56
sS'3:3:5:5:3:3'
p1186
I16
sS'5:5:3:1'
p1187
I106
sS'3:9:9:3:3'
p1188
I94
sS'3:9:9:3:5'
p1189
I95
sS'3:1:3'
p1190
I3
sS'3:1:7'
p1191
I5
sS'3:7:9:1'
p1192
I57
sS'3:1:5'
p1193
I4
sS'3:7:9:3'
p1194
I58
sS'3:3:11:1'
p1195
I29
sS'3:3:11:3'
p1196
I30
sS'3:5:9'
p1197
I45
sS'3:3:11:7'
p1198
I34
sS'3:5:7'
p1199
I44
sS'3:5:5'
p1200
I43
sS'3:5:3'
p1201
I42
sS'3:7:15:1'
p1202
I63
sS'3:7:15:3'
p1203
I64
sS'3:7:11:1'
p1204
I59
sS'5:1:3:1:17:3:1'
p1205
I105
sS'3:7:19:1'
p1206
I67
sS'3:7:19:3'
p1207
I68
sS'3:7:11:3'
p1208
I60
sS'3:9:9:4:1:1'
p1209
I96
sS'1:39:1:3:1'
p1210
I0
sS'3:3:3:5:3:5'
p1211
I9
sS'3:3:9:5:3:3'
p1212
I26
sS'3:3:3:5:3:3'
p1213
I8
sS'5:1:3:1:9:3:1'
p1214
I101
sS'3:7:13:3'
p1215
I62
sS'3:7:13:1'
p1216
I61
sS'3:7:17:3'
p1217
I66
sS'3:7:17:1'
p1218
I65
sS'3:3:5:5:3:5'
p1219
I17
sS'5:1:3:1:5:3:1'
p1220
I99
sS'3:9:3:4:1:1'
p1221
I85
sS'3:9:7:3:7'
p1222
I91
sS'3:9:7:3:5'
p1223
I90
sS'3:9:7:3:3'
p1224
I89
sS'3:9:5:3:5'
p1225
I87
sS'3:3:5:3'
p1226
I15
sS'3:9:5:3:3'
p1227
I86
sS'3:7:33:1'
p1228
I81
sS'3:7:33:3'
p1229
I82
sS'3:9:3:3:3'
p1230
I83
sS'3:7:31:3'
p1231
I80
sS'3:9:3:3:5'
p1232
I84
sS'3:7:31:1'
p1233
I79
sS'3:3:3:11:3:3'
p1234
I13
sS'5:5:5:1'
p1235
I107
sS'3:7:5:1'
p1236
I52
sS'3:7:5:3'
p1237
I53
sS'3:7:3:3'
p1238
I51
sS'3:7:3:1'
p1239
I50
ssS'21107320'
p1240
(dp1241
S'3:23:7:1'
p1242
I20
sS'3:23:33:1'
p1243
I47
sS'3:23:7:3'
p1244
I21
sS'7:7:3:4:1:1:1'
p1245
I61
sS'7:7:3:4:1:15:1'
p1246
I68
sS'7:7:3:4:1:5:1'
p1247
I63
sS'5:1:7:1'
p1248
I50
sS'7:3:3:4:1:3:1'
p1249
I53
sS'7:7:3:4:1:13:1'
p1250
I67
sS'3:23:19:1'
p1251
I33
sS'3:23:21:3'
p1252
I36
sS'3:23:19:3'
p1253
I34
sS'3:23:23:1'
p1254
I37
sS'3:23:3:1'
p1255
I16
sS'7:7:3:4:1:9:1'
p1256
I65
sS'3:23:3:3'
p1257
I17
sS'7:7:3:4:1:11:1'
p1258
I66
sS'1:77:1:3:1:25:3:4'
p1259
I1
sS'1:77:1:3:1:25:3:7'
p1260
I2
sS'3:23:31:1'
p1261
I45
sS'7:5:3:4:1:7:1'
p1262
I58
sS'3:23:21:1'
p1263
I35
sS'3:1'
p1264
I5
sS'3:23:15:1'
p1265
I28
sS'3:23:27:3'
p1266
I42
sS'3:23:15:3'
p1267
I29
sS'3:23:27:1'
p1268
I41
sS'3:23:17:5'
p1269
I32
sS'7:5:3:4:1:3:1'
p1270
I56
sS'3:23:17:3'
p1271
I31
sS'7:5:3:4:1:5:1'
p1272
I57
sS'3:23:17:1'
p1273
I30
sS'3:23:13:3'
p1274
I27
sS'7:9:3:4:1:5:1'
p1275
I72
sS'3:23:13:1'
p1276
I26
sS'3:23:25:1'
p1277
I39
sS'3:19'
p1278
I14
sS'3:23:25:3'
p1279
I40
sS'3:15'
p1280
I12
sS'7:9:3:4:1:7:1'
p1281
I73
sS'3:17'
p1282
I13
sS'5:3:3'
p1283
I51
sS'3:11'
p1284
I10
sS'3:13'
p1285
I11
sS'7:3:3:4:1:5:1'
p1286
I54
sS'1:77:1:3:1:25:3:10'
p1287
I3
sS'7:3:3:4:1:1:1'
p1288
I52
sS'7:9:3:4:1:3:1'
p1289
I71
sS'3:23:9:3'
p1290
I23
sS'3:23:9:1'
p1291
I22
sS'7:7:3:4:1:3:1'
p1292
I62
sS'7:9:3:4:1:1:1'
p1293
I70
sS'3:9'
p1294
I9
sS'3:23:31:3'
p1295
I46
sS'7:5:3:4:1:1:1'
p1296
I55
sS'3:23:11:1'
p1297
I24
sS'3:3'
p1298
I6
sS'3:23:11:3'
p1299
I25
sS'1:1:1:3:3:1:3:1'
p1300
I0
sS'3:7'
p1301
I8
sS'3:5'
p1302
I7
sS'7:7:3:4:1:17:1'
p1303
I69
sS'1:81:1:3:1'
p1304
I4
sS'3:23:23:3'
p1305
I38
sS'3:23:29:1'
p1306
I43
sS'3:23:29:3'
p1307
I44
sS'7:7:3:4:1:7:1'
p1308
I64
sS'7:9:3:4:1:11:1'
p1309
I75
sS'7:9:3:4:1:9:1'
p1310
I74
sS'3:23:5:3'
p1311
I19
sS'7:5:3:4:1:9:1'
p1312
I59
sS'3:23:5:1'
p1313
I18
sS'7:5:3:4:1:11:1'
p1314
I60
sS'5:1:5:1'
p1315
I49
sS'3:21:3'
p1316
I15
sS'5:1:3:1'
p1317
I48
ssS'15210742'
p1318
(dp1319
S'3:5:3:5:3:1'
p1320
I29
sS'3:7:11'
p1321
I54
sS'3:3:7:3'
p1322
I12
sS'3:3:7:1'
p1323
I11
sS'3:3:13:3'
p1324
I18
sS'3:3:13:1'
p1325
I17
sS'3:3:3:3'
p1326
I8
sS'3:3:3:1'
p1327
I7
sS'3:5:7:5'
p1328
I36
sS'3:5:7:7'
p1329
I37
sS'3:3:21:1'
p1330
I25
sS'3:5:9:5:3:1'
p1331
I42
sS'3:3:21:3'
p1332
I26
sS'3:5:5:5:3:1'
p1333
I33
sS'3:3:17:3'
p1334
I22
sS'3:1:3'
p1335
I3
sS'3:5:5:3'
p1336
I32
sS'3:5:5:1'
p1337
I31
sS'3:1:7'
p1338
I5
sS'3:5:13:5:3:1'
p1339
I49
sS'3:1:5'
p1340
I4
sS'3:1:9'
p1341
I6
sS'3:3:17:1'
p1342
I21
sS'3:5:3:7'
p1343
I30
sS'3:3:11:1'
p1344
I15
sS'3:3:11:3'
p1345
I16
sS'3:5:3:3'
p1346
I28
sS'3:5:11:5:3:1'
p1347
I46
sS'3:3:9:1'
p1348
I13
sS'3:3:9:3'
p1349
I14
sS'1:33:1:3:1:1:1'
p1350
I2
sS'3:5:13:1'
p1351
I47
sS'3:5:13:3'
p1352
I48
sS'3:7:5'
p1353
I51
sS'3:5:7:9:3:1'
p1354
I38
sS'3:7:7'
p1355
I52
sS'3:5:11:3'
p1356
I45
sS'3:7:3'
p1357
I50
sS'1:27:1:3:1:5:3:2'
p1358
I0
sS'3:5:9:7'
p1359
I43
sS'3:7:9'
p1360
I53
sS'3:5:9:3'
p1361
I41
sS'3:5:9:1'
p1362
I40
sS'5:1:5'
p1363
I56
sS'3:5:11:1'
p1364
I44
sS'3:5:7:11'
p1365
I39
sS'1:31:1:3:1'
p1366
I1
sS'3:5:7:1'
p1367
I34
sS'3:5:3:1'
p1368
I27
sS'3:5:7:3'
p1369
I35
sS'3:3:5:1'
p1370
I9
sS'3:3:5:3'
p1371
I10
sS'5:1:3'
p1372
I55
sS'3:3:19:1'
p1373
I23
sS'3:3:19:3'
p1374
I24
sS'3:3:15:1'
p1375
I19
sS'3:3:15:3'
p1376
I20
ssS'12654898'
p1377
(dp1378
S'3:3:7:7'
p1379
I15
sS'3:5:17:3'
p1380
I40
sS'3:3:7:3'
p1381
I13
sS'3:3:7:1'
p1382
I12
sS'5:5:3:1'
p1383
I42
sS'3:5:11:1'
p1384
I33
sS'3:3:3:5:3:1'
p1385
I6
sS'3:3:9:5:3:1'
p1386
I18
sS'3:3:3:3'
p1387
I5
sS'3:3:3:1'
p1388
I4
sS'3:3:5:5:3:1'
p1389
I10
sS'3:5:7:3'
p1390
I30
sS'3:5:3:1'
p1391
I25
sS'3:1:3'
p1392
I2
sS'3:3:7:5:3:1'
p1393
I14
sS'3:5:5:1'
p1394
I27
sS'3:1:5'
p1395
I3
sS'3:5:3:3'
p1396
I26
sS'3:3:9:9'
p1397
I20
sS'1:15:1:3:1:3:3:2'
p1398
I0
sS'3:3:3:7:3:1'
p1399
I7
sS'1:19:1:3:1'
p1400
I1
sS'3:3:9:1'
p1401
I16
sS'3:3:9:3'
p1402
I17
sS'3:5:17:1'
p1403
I39
sS'3:5:13:1'
p1404
I35
sS'3:3:9:7'
p1405
I19
sS'3:3:9:13'
p1406
I22
sS'3:3:9:11'
p1407
I21
sS'3:3:9:17'
p1408
I24
sS'5:1:3'
p1409
I41
sS'3:3:9:15'
p1410
I23
sS'3:5:15:3'
p1411
I38
sS'3:5:13:3'
p1412
I36
sS'3:5:9:3'
p1413
I32
sS'3:5:9:1'
p1414
I31
sS'3:5:5:3'
p1415
I28
sS'3:5:7:1'
p1416
I29
sS'3:5:15:1'
p1417
I37
sS'3:3:5:7'
p1418
I11
sS'3:3:5:1'
p1419
I8
sS'3:3:5:3'
p1420
I9
sS'3:5:11:3'
p1421
I34
ssS'22433566'
p1422
(dp1423
S'1:27:1:3:1:3'
p1424
I2
sS'3:3:7:7'
p1425
I22
sS'1:27:1:3:1:1'
p1426
I1
sS'3:9:9:39'
p1427
I60
sS'3:3:7:3'
p1428
I20
sS'3:11:3'
p1429
I69
sS'3:3:7:1'
p1430
I19
sS'3:9:17:1'
p1431
I67
sS'3:9:9:29'
p1432
I55
sS'3:3:3:5:3:1'
p1433
I13
sS'3:9:9:11'
p1434
I46
sS'1:27:1:3:3:1'
p1435
I3
sS'3:3:3:3'
p1436
I12
sS'1:27:1:3:3:3'
p1437
I4
sS'3:3:3:1'
p1438
I11
sS'3:9:9:3'
p1439
I42
sS'3:3:5:5:3:1'
p1440
I16
sS'3:9:9:7'
p1441
I44
sS'3:9:9:5'
p1442
I43
sS'3:1:3'
p1443
I7
sS'3:3:7:5:3:1'
p1444
I21
sS'3:9:9:27'
p1445
I54
sS'3:9:9:1'
p1446
I41
sS'3:1:7'
p1447
I9
sS'3:1:5'
p1448
I8
sS'3:9:13:1'
p1449
I63
sS'3:9:11:1'
p1450
I61
sS'3:1:9'
p1451
I10
sS'3:9:5:1'
p1452
I37
sS'3:9:9:9'
p1453
I45
sS'3:3:7:19'
p1454
I28
sS'3:9:7:1'
p1455
I39
sS'3:5:9'
p1456
I32
sS'3:9:7:3'
p1457
I40
sS'3:5:7'
p1458
I31
sS'3:3:7:11'
p1459
I24
sS'3:5:5'
p1460
I30
sS'3:9:9:25'
p1461
I53
sS'3:5:3'
p1462
I29
sS'3:3:7:15'
p1463
I26
sS'3:3:7:9:3:1'
p1464
I23
sS'3:9:3:1'
p1465
I35
sS'3:9:3:3'
p1466
I36
sS'3:9:17:3'
p1467
I68
sS'3:9:5:3'
p1468
I38
sS'3:3:7:13:3:1'
p1469
I25
sS'1:1:1:3:3:7:3:1'
p1470
I0
sS'3:9:15:3'
p1471
I66
sS'3:9:13:3'
p1472
I64
sS'3:7:5:3:1'
p1473
I34
sS'3:7:3'
p1474
I33
sS'3:9:9:23'
p1475
I52
sS'3:9:9:21'
p1476
I51
sS'3:9:15:1'
p1477
I65
sS'3:9:9:37'
p1478
I59
sS'3:9:9:33'
p1479
I57
sS'3:9:9:31'
p1480
I56
sS'3:9:9:19'
p1481
I50
sS'3:9:9:35'
p1482
I58
sS'3:9:9:15'
p1483
I48
sS'3:9:9:17'
p1484
I49
sS'3:3:7:17:3:1'
p1485
I27
sS'3:9:9:13'
p1486
I47
sS'3:9:11:3'
p1487
I62
sS'3:3:5:7'
p1488
I17
sS'1:27:1:3:5:3'
p1489
I6
sS'3:3:5:1'
p1490
I14
sS'1:27:1:3:5:1'
p1491
I5
sS'3:3:5:3'
p1492
I15
sS'5:1:3'
p1493
I70
sS'3:3:5:9'
p1494
I18
ssS'16520382'
p1495
(dp1496
S'3:5:17:1'
p1497
I35
sS'3:5:17:3'
p1498
I36
sS'3:5:3:1'
p1499
I21
sS'3:3:5:3:1'
p1500
I6
sS'3:5:3:3'
p1501
I22
sS'3:3:13:3:1'
p1502
I10
sS'3:5:7:1'
p1503
I25
sS'3:3:33:3:1'
p1504
I20
sS'3:5:7:3'
p1505
I26
sS'3:1:3'
p1506
I3
sS'3:5:5:3'
p1507
I24
sS'3:5:5:1'
p1508
I23
sS'3:1:5'
p1509
I4
sS'3:3:3'
p1510
I5
sS'3:3:7'
p1511
I7
sS'1:29:1:3:1:7:3:2'
p1512
I0
sS'3:3:29'
p1513
I18
sS'3:3:27'
p1514
I17
sS'1:33:1:3:1'
p1515
I1
sS'3:3:21'
p1516
I14
sS'3:3:23'
p1517
I15
sS'3:3:9'
p1518
I8
sS'3:5:13:1'
p1519
I31
sS'3:5:13:3'
p1520
I32
sS'5:1:5'
p1521
I38
sS'3:5:11:3'
p1522
I30
sS'5:1:3'
p1523
I37
sS'3:5:11:1'
p1524
I29
sS'3:5:15:3'
p1525
I34
sS'3:5:15:1'
p1526
I33
sS'3:5:9:3'
p1527
I28
sS'3:5:9:1'
p1528
I27
sS'3:3:25:3:1'
p1529
I16
sS'1:35:1:3:1:1:1'
p1530
I2
sS'3:3:19:3:1'
p1531
I13
sS'3:3:11'
p1532
I9
sS'3:3:15'
p1533
I11
sS'3:3:17'
p1534
I12
sS'3:3:31'
p1535
I19
ssS'18504304'
p1536
(dp1537
S'3:15:13:3'
p1538
I78
sS'3:15:13:1'
p1539
I77
sS'3:15:13:5'
p1540
I79
sS'3:15:11:1'
p1541
I74
sS'3:15:11:3'
p1542
I75
sS'3:15:11:5'
p1543
I76
sS'3:15:17:1'
p1544
I82
sS'3:15:9:1'
p1545
I71
sS'3:15:9:3'
p1546
I72
sS'3:15:9:5'
p1547
I73
sS'3:11:13:11'
p1548
I41
sS'3:15:15:1'
p1549
I80
sS'3:15:15:3'
p1550
I81
sS'3:11:9:11:7:1:1'
p1551
I26
sS'3:7'
p1552
I7
sS'3:11:7:5:3:1'
p1553
I17
sS'3:13:7:1'
p1554
I59
sS'3:13:7:3'
p1555
I60
sS'3:13:7:5'
p1556
I61
sS'3:13:9:3'
p1557
I63
sS'3:13:9:1'
p1558
I62
sS'3:11:17:5:3:1'
p1559
I51
sS'3:11:3:5:3:1'
p1560
I11
sS'3:15:17:3'
p1561
I83
sS'3:11:17:1'
p1562
I49
sS'3:15:5:1'
p1563
I67
sS'3:11:15:13'
p1564
I48
sS'3:11:15:11'
p1565
I47
sS'3:15:5:3'
p1566
I68
sS'3:11:13:5:3:1'
p1567
I38
sS'3:11:17:3'
p1568
I50
sS'3:11:17:11'
p1569
I54
sS'3:11:17:7'
p1570
I52
sS'1:15:1:3:1:3:3:2'
p1571
I1
sS'3:11:17:9'
p1572
I53
sS'3:11:13:7'
p1573
I39
sS'3:11:15:3'
p1574
I43
sS'3:11:13:3'
p1575
I37
sS'3:11:13:1'
p1576
I36
sS'3:11:15:9'
p1577
I46
sS'3:11:13:9'
p1578
I40
sS'3:11:11:7'
p1579
I32
sS'3:11:11:1'
p1580
I29
sS'3:11:11:3'
p1581
I30
sS'3:11:11:9'
p1582
I33
sS'3:11:11:5:3:1'
p1583
I31
sS'3:13:5:3'
p1584
I58
sS'3:13:5:1'
p1585
I57
sS'3:11:15:7'
p1586
I45
sS'3:11:15:5:3:1'
p1587
I44
sS'1:21:1:3:1:1:1'
p1588
I3
sS'3:13:3:1'
p1589
I55
sS'3:13:3:3'
p1590
I56
sS'3:15:7:3'
p1591
I70
sS'3:15:7:1'
p1592
I69
sS'3:15:3:3'
p1593
I65
sS'3:15:3:1'
p1594
I64
sS'3:15:3:5'
p1595
I66
sS'3:11:9:5:3:1'
p1596
I22
sS'3:11:5:1'
p1597
I13
sS'3:11:5:3'
p1598
I14
sS'1:19:1:3:1'
p1599
I2
sS'3:9'
p1600
I8
sS'3:11:9:1'
p1601
I20
sS'3:11:9:3'
p1602
I21
sS'3:3'
p1603
I5
sS'3:1'
p1604
I4
sS'3:11:9:9'
p1605
I24
sS'3:5'
p1606
I6
sS'3:11:15:1'
p1607
I42
sS'3:11:9:15'
p1608
I28
sS'3:11:9:13'
p1609
I27
sS'3:11:9:11:3:1'
p1610
I25
sS'3:11:3:7'
p1611
I12
sS'3:11:7:9'
p1612
I19
sS'3:11:3:3'
p1613
I10
sS'3:11:3:1'
p1614
I9
sS'3:11:7:3'
p1615
I16
sS'3:11:7:1'
p1616
I15
sS'3:11:7:7'
p1617
I18
sS'1:1:1:3:3:5:3:1'
p1618
I0
sS'5:1:5'
p1619
I87
sS'5:1:7'
p1620
I88
sS'5:1:3'
p1621
I86
sS'3:15:19:1'
p1622
I84
sS'3:15:19:3'
p1623
I85
sS'3:11:9:7'
p1624
I23
sS'3:11:11:13'
p1625
I35
sS'3:11:11:11'
p1626
I34
ssS'19234442'
p1627
(dp1628
S'3:13:5:1'
p1629
I25
sS'3:7:11'
p1630
I16
sS'5:1:3'
p1631
I39
sS'3:7:13'
p1632
I17
sS'7:9:3:1'
p1633
I43
sS'7:3:3:1'
p1634
I40
sS'3:13:11:3'
p1635
I32
sS'3:13:11:1'
p1636
I31
sS'7:5:3:1'
p1637
I41
sS'7:7:3:1'
p1638
I42
sS'3:13:3:1'
p1639
I23
sS'3:13:3:3'
p1640
I24
sS'3:3:9'
p1641
I7
sS'3:13:13:1'
p1642
I33
sS'3:1'
p1643
I3
sS'3:11:3'
p1644
I22
sS'1:19:1:3:1:9:3:4'
p1645
I1
sS'3:13:15:1'
p1646
I35
sS'3:13:5:3'
p1647
I26
sS'3:3:3'
p1648
I4
sS'1:23:1:3:1'
p1649
I2
sS'3:3:5'
p1650
I5
sS'3:3:7'
p1651
I6
sS'3:13:17:1'
p1652
I37
sS'3:5:9'
p1653
I11
sS'3:13:17:3'
p1654
I38
sS'3:5:7'
p1655
I10
sS'3:5:5'
p1656
I9
sS'3:5:3'
p1657
I8
sS'3:7:5'
p1658
I13
sS'3:13:7:1'
p1659
I27
sS'3:7:7'
p1660
I14
sS'3:13:7:3'
p1661
I28
sS'3:7:3'
p1662
I12
sS'3:13:13:3'
p1663
I34
sS'1:1:1:3:3:1:3:1'
p1664
I0
sS'3:7:9'
p1665
I15
sS'3:13:15:3'
p1666
I36
sS'3:9:9'
p1667
I21
sS'3:9:3'
p1668
I18
sS'3:9:7'
p1669
I20
sS'3:13:9:3'
p1670
I30
sS'3:9:5'
p1671
I19
sS'3:13:9:1'
p1672
I29
sS'7:11:3:1'
p1673
I44
ssS'17101693'
p1674
(dp1675
S'3:1:13'
p1676
I8
sS'3:3:7:7'
p1677
I23
sS'3:1:11'
p1678
I7
sS'3:3:7:3'
p1679
I21
sS'3:3:7:1'
p1680
I20
sS'3:3:13:3'
p1681
I36
sS'3:3:13:1'
p1682
I35
sS'1:25:1:3:1'
p1683
I1
sS'1:27:1:3:1:1:1'
p1684
I2
sS'3:3:3:3'
p1685
I10
sS'3:3:3:1'
p1686
I9
sS'3:7:13:3'
p1687
I65
sS'3:3:3:5'
p1688
I11
sS'3:7:17:3'
p1689
I69
sS'3:3:5:5:3:1'
p1690
I18
sS'3:3:3:11'
p1691
I14
sS'3:1:3'
p1692
I3
sS'3:3:7:5:3:1'
p1693
I22
sS'3:3:3:9'
p1694
I13
sS'3:1:7'
p1695
I5
sS'3:7:9:1'
p1696
I60
sS'3:1:5'
p1697
I4
sS'3:3:15:9'
p1698
I44
sS'3:3:9:5:3:1'
p1699
I27
sS'3:1:9'
p1700
I6
sS'3:3:11:1'
p1701
I29
sS'3:3:11:3'
p1702
I30
sS'3:3:3:13:3:1'
p1703
I15
sS'3:5:9'
p1704
I49
sS'3:7:7:3'
p1705
I59
sS'3:5:7'
p1706
I48
sS'3:3:11:9'
p1707
I33
sS'3:5:5'
p1708
I47
sS'3:5:3'
p1709
I46
sS'3:3:13:5:3:1'
p1710
I37
sS'3:3:11:5'
p1711
I31
sS'3:5:17'
p1712
I53
sS'3:7:15:1'
p1713
I66
sS'3:5:15'
p1714
I52
sS'3:7:7:1'
p1715
I58
sS'3:5:13'
p1716
I51
sS'3:3:15:11:3:1'
p1717
I45
sS'3:5:11'
p1718
I50
sS'3:3:3:7:3:1'
p1719
I12
sS'3:3:9:1'
p1720
I25
sS'3:3:9:3'
p1721
I26
sS'3:7:17:1'
p1722
I68
sS'3:3:9:7'
p1723
I28
sS'5:1:5'
p1724
I79
sS'3:7:19:5'
p1725
I72
sS'3:7:19:3'
p1726
I71
sS'3:3:11:11'
p1727
I34
sS'3:7:19:1'
p1728
I70
sS'5:1:3'
p1729
I78
sS'3:7:5:1'
p1730
I56
sS'3:7:11:1'
p1731
I62
sS'3:7:19:7'
p1732
I73
sS'3:3:7:9'
p1733
I24
sS'3:7:21:1'
p1734
I74
sS'3:7:23:1'
p1735
I76
sS'3:3:11:7:3:1'
p1736
I32
sS'3:3:15:7:3:1'
p1737
I43
sS'3:7:5:3'
p1738
I57
sS'3:7:11:3'
p1739
I63
sS'1:21:1:3:1:9:3:2'
p1740
I0
sS'3:7:13:1'
p1741
I64
sS'3:7:23:3'
p1742
I77
sS'3:3:13:9:3:1'
p1743
I39
sS'3:7:15:3'
p1744
I67
sS'3:7:9:3'
p1745
I61
sS'3:7:3:3'
p1746
I55
sS'3:3:5:7'
p1747
I19
sS'3:3:13:7'
p1748
I38
sS'3:3:5:1'
p1749
I16
sS'3:7:21:3'
p1750
I75
sS'3:3:5:3'
p1751
I17
sS'3:3:15:5'
p1752
I42
sS'3:7:3:1'
p1753
I54
sS'3:3:15:1'
p1754
I40
sS'3:3:15:3'
p1755
I41
ssS'24106086'
p1756
(dp1757
S'3:11:5'
p1758
I53
sS'3:1:11'
p1759
I6
sS'3:3:7:3'
p1760
I12
sS'3:5:7:4:3:1'
p1761
I36
sS'3:3:7:1'
p1762
I11
sS'3:3:13:3'
p1763
I18
sS'3:3:13:1'
p1764
I17
sS'1:25:1:3:1'
p1765
I1
sS'3:5:3:6'
p1766
I26
sS'3:7:3:5'
p1767
I45
sS'3:3:3:3'
p1768
I8
sS'3:3:3:1'
p1769
I7
sS'3:5:5:6:3:1'
p1770
I33
sS'3:3:17:3'
p1771
I22
sS'3:1:3'
p1772
I2
sS'3:5:3:7:3:1'
p1773
I27
sS'3:5:5:1'
p1774
I30
sS'3:1:7'
p1775
I4
sS'3:11:3'
p1776
I52
sS'3:1:5'
p1777
I3
sS'3:5:5:5'
p1778
I32
sS'3:1:9'
p1779
I5
sS'3:3:17:1'
p1780
I21
sS'3:3:11:1'
p1781
I15
sS'3:3:11:3'
p1782
I16
sS'3:5:3:3'
p1783
I24
sS'3:5:3:4:3:1'
p1784
I25
sS'3:7:7:1'
p1785
I49
sS'3:7:5:3'
p1786
I47
sS'3:5:5:3'
p1787
I31
sS'3:5:9:4:3:1'
p1788
I40
sS'3:3:9:1'
p1789
I13
sS'3:3:9:3'
p1790
I14
sS'3:7:7:3'
p1791
I50
sS'3:5:3:9'
p1792
I28
sS'1:21:1:3:1:3:3:6'
p1793
I0
sS'5:1:3'
p1794
I54
sS'3:5:9:6'
p1795
I41
sS'3:7:5:5'
p1796
I48
sS'3:5:3:10:3:1'
p1797
I29
sS'3:5:9:3'
p1798
I39
sS'3:5:9:1'
p1799
I38
sS'3:5:9:7:3:1'
p1800
I42
sS'3:5:7:1'
p1801
I34
sS'3:5:3:1'
p1802
I23
sS'3:7:3:3'
p1803
I44
sS'3:9:3'
p1804
I51
sS'3:5:7:3'
p1805
I35
sS'3:3:5:1'
p1806
I9
sS'3:5:7:6'
p1807
I37
sS'3:3:5:3'
p1808
I10
sS'3:7:5:1'
p1809
I46
sS'3:7:3:1'
p1810
I43
sS'3:3:15:1'
p1811
I19
sS'3:3:15:3'
p1812
I20
ssS'19734906'
p1813
(dp1814
S'7:13:3:3'
p1815
I43
sS'5:3:3:1'
p1816
I37
sS'7:3:3:3'
p1817
I38
sS'7:9:3:3'
p1818
I41
sS'3:13:11:3'
p1819
I25
sS'3:15:3'
p1820
I30
sS'3:13:11:1'
p1821
I24
sS'3:15:5'
p1822
I31
sS'3:15:7'
p1823
I32
sS'3:13:11:5'
p1824
I26
sS'3:15:9'
p1825
I33
sS'7:5:3:3'
p1826
I39
sS'3:13:3:1'
p1827
I9
sS'3:13:3:3'
p1828
I10
sS'3:17:3'
p1829
I35
sS'3:13:13:1'
p1830
I27
sS'3:13:5:9'
p1831
I15
sS'3:13:13:5'
p1832
I29
sS'3:13:5:3'
p1833
I12
sS'3:13:5:1'
p1834
I11
sS'3:13:5:7'
p1835
I14
sS'3:13:5:5'
p1836
I13
sS'3:11'
p1837
I8
sS'7:7:3:3'
p1838
I40
sS'1:19:1:3:1'
p1839
I2
sS'1:15:1:3:1:1:3:2'
p1840
I1
sS'3:13:7:1'
p1841
I16
sS'3:13:7:3'
p1842
I17
sS'3:13:7:5'
p1843
I18
sS'5:1:3'
p1844
I36
sS'3:13:7:7'
p1845
I19
sS'3:3'
p1846
I4
sS'1:1:1:3:3:1:3:1'
p1847
I0
sS'3:7'
p1848
I6
sS'3:5'
p1849
I5
sS'3:13:13:3'
p1850
I28
sS'3:13:9:7'
p1851
I23
sS'3:13:9:5'
p1852
I22
sS'3:13:9:3'
p1853
I21
sS'3:13:9:1'
p1854
I20
sS'7:11:3:3'
p1855
I42
sS'3:9'
p1856
I7
sS'3:15:11'
p1857
I34
sS'3:1'
p1858
I3
ssS'19274086'
p1859
(dp1860
S'3:1:13'
p1861
I12
sS'3:3:7:7'
p1862
I26
sS'3:1:11'
p1863
I11
sS'3:3:7:3'
p1864
I24
sS'3:3:7:1'
p1865
I23
sS'3:5:17'
p1866
I46
sS'3:7:7:3'
p1867
I52
sS'3:7:13:3'
p1868
I58
sS'3:7:7:1'
p1869
I51
sS'3:3:9:5:3:3'
p1870
I30
sS'3:3:3:5:3:3'
p1871
I15
sS'3:7:17:3'
p1872
I62
sS'3:3:3:3'
p1873
I14
sS'3:3:3:1'
p1874
I13
sS'3:3:3:7'
p1875
I16
sS'3:7:13:1'
p1876
I57
sS'3:3:5:5:3:3'
p1877
I19
sS'3:7:17:1'
p1878
I61
sS'3:1:3'
p1879
I7
sS'3:3:7:5:3:3'
p1880
I25
sS'3:1:7'
p1881
I9
sS'3:5:15'
p1882
I45
sS'1:19:1:3:1:9:3:4'
p1883
I0
sS'3:7:9:3'
p1884
I54
sS'3:7:11:1'
p1885
I55
sS'3:1:9'
p1886
I10
sS'3:3:11:5:3:3'
p1887
I35
sS'3:7:15:1'
p1888
I59
sS'3:3:11:1'
p1889
I33
sS'3:3:11:3'
p1890
I34
sS'1:23:1:3:1:3'
p1891
I2
sS'1:23:1:3:1:1'
p1892
I1
sS'3:3:11:7'
p1893
I36
sS'3:5:7'
p1894
I41
sS'3:3:11:9'
p1895
I37
sS'3:5:5'
p1896
I40
sS'3:5:3'
p1897
I39
sS'3:5:11:3:3'
p1898
I43
sS'5:5:5:1'
p1899
I67
sS'1:23:1:3:5:3'
p1900
I6
sS'3:3:9:9'
p1901
I32
sS'1:23:1:3:5:1'
p1902
I5
sS'3:7:15:3'
p1903
I60
sS'1:23:1:3:3:1'
p1904
I3
sS'3:5:9'
p1905
I42
sS'1:23:1:3:3:3'
p1906
I4
sS'5:5:3:1'
p1907
I66
sS'3:3:9:1'
p1908
I28
sS'3:3:9:3'
p1909
I29
sS'3:3:9:7'
p1910
I31
sS'3:5:13'
p1911
I44
sS'3:3:11:11'
p1912
I38
sS'3:7:19:1'
p1913
I63
sS'5:1:3'
p1914
I65
sS'3:7:19:3'
p1915
I64
sS'3:7:3:3'
p1916
I48
sS'3:3:7:9'
p1917
I27
sS'3:7:9:1'
p1918
I53
sS'3:7:11:3'
p1919
I56
sS'3:1:5'
p1920
I8
sS'3:3:5:11'
p1921
I22
sS'3:3:5:7'
p1922
I20
sS'3:3:5:1'
p1923
I17
sS'3:3:5:3'
p1924
I18
sS'3:7:5:1'
p1925
I49
sS'3:7:5:3'
p1926
I50
sS'3:3:5:9'
p1927
I21
sS'3:7:3:1'
p1928
I47
ssS'16848641'
p1929
(dp1930
S'5:9:7:1'
p1931
I86
sS'3:3:7:3'
p1932
I16
sS'5:7:7:3:9'
p1933
I70
sS'3:3:7:1'
p1934
I15
sS'5:7:7:3:7'
p1935
I69
sS'5:7:7:3:5'
p1936
I68
sS'5:7:7:3:3'
p1937
I67
sS'3:3:3:3'
p1938
I8
sS'3:3:3:1'
p1939
I7
sS'3:3:3:7'
p1940
I10
sS'3:3:3:5'
p1941
I9
sS'3:3:3:9'
p1942
I11
sS'5:7:11:3:3'
p1943
I74
sS'5:7:13:3:3'
p1944
I75
sS'5:3:3:1:13:3:1'
p1945
I55
sS'5:7:13:3:5'
p1946
I76
sS'3:7:7:3'
p1947
I40
sS'3:5:15'
p1948
I34
sS'3:7:7:1'
p1949
I39
sS'3:5:13'
p1950
I33
sS'3:5:11'
p1951
I32
sS'3:5:3'
p1952
I28
sS'5:7:13:3:11'
p1953
I79
sS'5:3:3:1:7:3:1'
p1954
I52
sS'5:9:5:1'
p1955
I85
sS'5:9:3:1'
p1956
I84
sS'5:3:3:1:9:3:1'
p1957
I53
sS'5:7:5:3:5'
p1958
I65
sS'5:7:5:3:7'
p1959
I66
sS'5:3:3:1:21:3:1'
p1960
I59
sS'5:3:3:1:11:3:1'
p1961
I54
sS'5:3:3:1:19:3:1'
p1962
I58
sS'5:7:3:3:3'
p1963
I60
sS'5:7:3:3:7'
p1964
I62
sS'5:7:3:3:5'
p1965
I61
sS'5:7:3:3:9'
p1966
I63
sS'5:7:17:3:3'
p1967
I83
sS'3:3:9:1'
p1968
I17
sS'3:3:9:3'
p1969
I18
sS'5:7:13:3:9'
p1970
I78
sS'5:7:9:3:3'
p1971
I71
sS'5:7:9:3:5'
p1972
I72
sS'5:7:9:3:7'
p1973
I73
sS'5:3:3:1:5:3:1'
p1974
I51
sS'3:3:5:1'
p1975
I13
sS'3:3:5:3'
p1976
I14
sS'3:1:11'
p1977
I6
sS'3:3:3:11'
p1978
I12
sS'3:3:13:3'
p1979
I24
sS'3:3:13:1'
p1980
I23
sS'3:3:13:5'
p1981
I25
sS'3:1:3'
p1982
I2
sS'3:7:9:5'
p1983
I43
sS'3:1:7'
p1984
I4
sS'3:7:9:1'
p1985
I41
sS'3:1:5'
p1986
I3
sS'3:7:9:3'
p1987
I42
sS'3:1:9'
p1988
I5
sS'3:3:11:1'
p1989
I19
sS'3:3:11:3'
p1990
I20
sS'3:3:11:5'
p1991
I21
sS'3:5:9'
p1992
I31
sS'3:3:11:7'
p1993
I22
sS'3:5:7'
p1994
I30
sS'3:5:5'
p1995
I29
sS'5:3:3:1:3:3:1'
p1996
I50
sS'5:3:3:1:15:3:1'
p1997
I56
sS'5:7:13:3:7'
p1998
I77
sS'5:3:3:1:17:3:1'
p1999
I57
sS'1:33:1:3:1'
p2000
I0
sS'5:7:15:3:5'
p2001
I81
sS'5:7:15:3:7'
p2002
I82
sS'3:3:15:1'
p2003
I26
sS'5:7:15:3:3'
p2004
I80
sS'3:3:15:3'
p2005
I27
sS'5:7:5:3:3'
p2006
I64
sS'5:3:3:1:1:3:1'
p2007
I49
sS'3:7:11:1'
p2008
I44
sS'3:7:11:3'
p2009
I45
sS'3:7:13:3'
p2010
I47
sS'3:7:13:1'
p2011
I46
sS'5:1:3'
p2012
I48
sS'1:35:1:3:1'
p2013
I1
sS'3:7:5:1'
p2014
I37
sS'3:7:5:3'
p2015
I38
sS'3:7:3:3'
p2016
I36
sS'3:7:3:1'
p2017
I35
ssS'11457889'
p2018
(dp2019
S'3:7:15'
p2020
I37
sS'3:5:17:1'
p2021
I29
sS'3:7:17'
p2022
I38
sS'3:3:7:5'
p2023
I10
sS'3:7:11'
p2024
I35
sS'3:3:7:3'
p2025
I9
sS'3:7:13'
p2026
I36
sS'3:5:3:3'
p2027
I14
sS'3:5:17:3'
p2028
I30
sS'7:9:3:1'
p2029
I44
sS'7:3:3:1'
p2030
I41
sS'3:3:3:3'
p2031
I4
sS'3:3:3:1'
p2032
I3
sS'3:5:7:5'
p2033
I19
sS'7:5:3:1'
p2034
I42
sS'7:7:3:1'
p2035
I43
sS'3:5:3:1'
p2036
I13
sS'3:1:3'
p2037
I1
sS'3:5:5:3'
p2038
I16
sS'3:5:5:1'
p2039
I15
sS'3:1:5'
p2040
I2
sS'7:13:3:1'
p2041
I46
sS'3:3:7:1'
p2042
I8
sS'7:11:3:1'
p2043
I45
sS'7:15:3:1'
p2044
I47
sS'5:5:3:1'
p2045
I40
sS'1:19:1:3:1'
p2046
I0
sS'3:3:9:1'
p2047
I11
sS'3:3:9:3'
p2048
I12
sS'3:5:13:1'
p2049
I25
sS'3:5:13:3'
p2050
I26
sS'3:7:5'
p2051
I32
sS'3:7:7'
p2052
I33
sS'3:5:11:5'
p2053
I24
sS'3:5:11:3'
p2054
I23
sS'3:7:3'
p2055
I31
sS'3:5:11:1'
p2056
I22
sS'3:5:15:3'
p2057
I28
sS'3:5:15:1'
p2058
I27
sS'3:7:9'
p2059
I34
sS'3:5:9:3'
p2060
I21
sS'3:5:9:1'
p2061
I20
sS'3:5:7:1'
p2062
I17
sS'3:3:5:5'
p2063
I7
sS'3:5:7:3'
p2064
I18
sS'3:3:5:1'
p2065
I5
sS'3:3:5:3'
p2066
I6
sS'5:1:3'
p2067
I39
ssS'22245064'
p2068
(dp2069
S'3:3:7:5'
p2070
I10
sS'3:9:4:1:39:3:1'
p2071
I47
sS'3:3:7:1'
p2072
I9
sS'3:9:4:1:25:3:1'
p2073
I40
sS'3:3:13:1'
p2074
I15
sS'7:9:3:1'
p2075
I59
sS'3:3:13:5'
p2076
I16
sS'7:5:3:1'
p2077
I57
sS'7:17:3:1'
p2078
I63
sS'3:9:4:1:41:3:1'
p2079
I48
sS'7:7:3:1'
p2080
I58
sS'3:1:7'
p2081
I4
sS'3:1:5'
p2082
I3
sS'5:7:3:1'
p2083
I55
sS'7:13:3:1'
p2084
I61
sS'3:1:9'
p2085
I5
sS'1:23:1:3:1'
p2086
I2
sS'3:9:4:1:33:3:1'
p2087
I44
sS'3:9:4:1:15:3:1'
p2088
I35
sS'3:9:4:1:27:3:1'
p2089
I41
sS'3:3:11:1'
p2090
I13
sS'3:9:4:1:17:3:1'
p2091
I36
sS'3:3:11:5'
p2092
I14
sS'3:5:9'
p2093
I21
sS'1:1:1:3:3:5:3:1'
p2094
I0
sS'3:5:7'
p2095
I20
sS'3:5:5'
p2096
I19
sS'7:15:3:1'
p2097
I62
sS'3:9:4:1:1:3:1'
p2098
I28
sS'3:9:4:1:9:3:1'
p2099
I32
sS'3:5:17'
p2100
I25
sS'3:9:4:1:5:3:1'
p2101
I30
sS'3:5:15'
p2102
I24
sS'3:9:4:1:7:3:1'
p2103
I31
sS'3:5:13'
p2104
I23
sS'3:5:11'
p2105
I22
sS'3:9:4:1:45:3:1'
p2106
I50
sS'3:3:9:1'
p2107
I11
sS'3:9:4:1:3:3:1'
p2108
I29
sS'3:3:9:5'
p2109
I12
sS'3:5:19'
p2110
I26
sS'3:7:5'
p2111
I27
sS'3:9:4:1:49:3:1'
p2112
I52
sS'5:3:6:1:1'
p2113
I53
sS'3:9:4:1:13:3:1'
p2114
I34
sS'3:9:4:1:19:3:1'
p2115
I37
sS'7:11:3:1'
p2116
I60
sS'5:5:3'
p2117
I54
sS'3:9:4:1:35:3:1'
p2118
I45
sS'3:9:4:1:43:3:1'
p2119
I49
sS'3:9:4:1:11:3:1'
p2120
I33
sS'3:9:4:1:47:3:1'
p2121
I51
sS'3:9:4:1:21:3:1'
p2122
I38
sS'1:21:1:3:1'
p2123
I1
sS'3:9:4:1:37:3:1'
p2124
I46
sS'3:9:4:1:29:3:1'
p2125
I42
sS'3:9:4:1:31:3:1'
p2126
I43
sS'3:3:5:5'
p2127
I7
sS'3:3:5:7'
p2128
I8
sS'7:3:3:1'
p2129
I56
sS'3:3:5:1'
p2130
I6
sS'3:3:15:5'
p2131
I18
sS'3:9:4:1:23:3:1'
p2132
I39
sS'3:3:15:1'
p2133
I17
ssS'20547488'
p2134
(dp2135
S'3:5:3:1:3:5'
p2136
I20
sS'5:3:3:2:1:11:3:1'
p2137
I53
sS'3:7:11'
p2138
I43
sS'5:3:3:1'
p2139
I47
sS'3:7:13'
p2140
I44
sS'3:3:3:1:9:3'
p2141
I11
sS'3:5:3:1:3:11'
p2142
I23
sS'3:5:3:1:5:3'
p2143
I25
sS'3:5:3:1:7:3'
p2144
I32
sS'5:3:3:2:1:3:3:1'
p2145
I49
sS'3:5:3:1:5:7'
p2146
I27
sS'3:5:3:1:5:9'
p2147
I28
sS'3:3:3:1:17:3'
p2148
I15
sS'3:1:3'
p2149
I3
sS'3:5:3:1:3:13:3:1'
p2150
I24
sS'3:5:3:1:1:7'
p2151
I18
sS'3:1:7'
p2152
I5
sS'3:5:3:1:7:7'
p2153
I34
sS'3:1:5'
p2154
I4
sS'3:5:3:1:1:3'
p2155
I16
sS'5:3:3:2:1:1:3:1'
p2156
I48
sS'3:1:9'
p2157
I6
sS'1:23:1:3:1'
p2158
I2
sS'3:5:3:1:3:7'
p2159
I21
sS'3:3:3:1:3:3'
p2160
I8
sS'1:1:1:3:3:5:3:3'
p2161
I1
sS'1:1:1:3:3:5:3:1'
p2162
I0
sS'3:5:3:1:9:5:3:1'
p2163
I37
sS'5:3:3:2:1:13:3:1'
p2164
I54
sS'3:5:3:1:3:3'
p2165
I19
sS'5:3:3:2:1:5:3:1'
p2166
I50
sS'3:3:3:1:1:3'
p2167
I7
sS'3:5:3:1:5:15:3:1'
p2168
I31
sS'3:3:3:1:7:3'
p2169
I10
sS'5:3:3:2:1:7:3:1'
p2170
I51
sS'3:5:3:1:5:5:3:1'
p2171
I26
sS'3:7:5'
p2172
I40
sS'3:7:7'
p2173
I41
sS'3:3:3:1:5:3'
p2174
I9
sS'3:7:3'
p2175
I39
sS'3:5:3:1:9:7:3:1'
p2176
I38
sS'3:7:9'
p2177
I42
sS'3:5:3:1:7:5:3:1'
p2178
I33
sS'3:3:3:1:13:3'
p2179
I13
sS'5:3:3:2:1:9:3:1'
p2180
I52
sS'3:3:3:1:11:3'
p2181
I12
sS'3:5:3:1:1:5:3:1'
p2182
I17
sS'3:5:3:1:9:3'
p2183
I36
sS'3:5:3:1:5:13'
p2184
I30
sS'3:5:3:1:5:11'
p2185
I29
sS'3:5:3:1:7:9:3:1'
p2186
I35
sS'3:3:3:1:15:3'
p2187
I14
sS'5:1:5:1'
p2188
I46
sS'5:1:3:1'
p2189
I45
sS'5:3:3:2:1:15:3:1'
p2190
I55
sS'5:5:3'
p2191
I56
sS'3:5:3:1:3:9:3:1'
p2192
I22
ssS'17163980'
p2193
(dp2194
S'3:3:7:3'
p2195
I13
sS'3:3:7:1'
p2196
I12
sS'3:3:3:5:3:5'
p2197
I9
sS'3:7:7:1'
p2198
I39
sS'1:25:1:3:1'
p2199
I1
sS'3:3:3:5:3:3'
p2200
I8
sS'3:3:3:3'
p2201
I7
sS'3:3:3:1'
p2202
I6
sS'3:7:13:3'
p2203
I46
sS'3:7:13:1'
p2204
I45
sS'3:7:17:3'
p2205
I50
sS'3:3:7:11:3:1'
p2206
I18
sS'3:1:3'
p2207
I2
sS'3:3:7:5:3:1'
p2208
I14
sS'3:3:11:9:3:1'
p2209
I27
sS'3:1:7'
p2210
I4
sS'3:7:9:1'
p2211
I41
sS'3:1:5'
p2212
I3
sS'3:7:9:3'
p2213
I42
sS'3:3:9:5:3:1'
p2214
I22
sS'3:7:3:5:3:1'
p2215
I36
sS'3:1:9'
p2216
I5
sS'3:3:7:7:3:1'
p2217
I15
sS'3:3:11:5:3:1'
p2218
I25
sS'3:3:11:1'
p2219
I23
sS'3:3:11:3'
p2220
I24
sS'3:5:9'
p2221
I31
sS'3:7:7:3'
p2222
I40
sS'3:5:7'
p2223
I30
sS'3:5:5'
p2224
I29
sS'3:5:3'
p2225
I28
sS'3:7:15:1'
p2226
I47
sS'3:7:15:3'
p2227
I48
sS'3:5:13'
p2228
I33
sS'3:5:11'
p2229
I32
sS'3:3:7:13:3:1'
p2230
I19
sS'3:3:9:1'
p2231
I20
sS'3:3:9:3'
p2232
I21
sS'3:7:17:1'
p2233
I49
sS'3:3:7:7:7:1:1'
p2234
I16
sS'3:7:11:1'
p2235
I43
sS'3:7:19:1'
p2236
I51
sS'5:1:3'
p2237
I57
sS'3:7:19:3'
p2238
I52
sS'3:7:23:3'
p2239
I56
sS'3:3:7:9'
p2240
I17
sS'3:7:11:3'
p2241
I44
sS'3:3:11:7:3:1'
p2242
I26
sS'3:7:23:1'
p2243
I55
sS'1:21:1:3:1:1:3:4'
p2244
I0
sS'3:7:21:1'
p2245
I53
sS'3:3:5:1'
p2246
I10
sS'3:7:21:3'
p2247
I54
sS'3:3:5:3'
p2248
I11
sS'3:7:5:1'
p2249
I37
sS'3:7:5:3'
p2250
I38
sS'3:7:3:3'
p2251
I35
sS'3:7:3:1'
p2252
I34
ssS'19675569'
p2253
(dp2254
S'7:9:3:3'
p2255
I20
sS'3:17'
p2256
I10
sS'1:1:1:3:3:1:3:1'
p2257
I0
sS'3:21'
p2258
I12
sS'5:1:3'
p2259
I15
sS'3:23'
p2260
I13
sS'7:7:3:3'
p2261
I19
sS'3:11'
p2262
I7
sS'3:25:3'
p2263
I14
sS'7:3:3:3'
p2264
I17
sS'1:27:1:3:1'
p2265
I1
sS'5:3:3:1'
p2266
I16
sS'3:9'
p2267
I6
sS'3:19'
p2268
I11
sS'3:13'
p2269
I8
sS'3:15'
p2270
I9
sS'3:3'
p2271
I3
sS'7:5:3:3'
p2272
I18
sS'3:1'
p2273
I2
sS'3:7'
p2274
I5
sS'3:5'
p2275
I4
ssS'16785313'
p2276
(dp2277
S'3:7:3:1'
p2278
I7
sS'3:11:3:3'
p2279
I34
sS'3:7:7:3'
p2280
I16
sS'3:11:17:3'
p2281
I48
sS'3:7:7:1'
p2282
I15
sS'3:7:11:1'
p2283
I21
sS'3:7:11:3'
p2284
I22
sS'3:11:17:1'
p2285
I47
sS'3:7:13:3'
p2286
I25
sS'3:7:13:1'
p2287
I24
sS'3:11:7:3'
p2288
I38
sS'3:11:7:1'
p2289
I37
sS'3:7:9:1'
p2290
I18
sS'3:7:9:3'
p2291
I19
sS'3:7:3:5:3:1'
p2292
I9
sS'3:11:19:1'
p2293
I49
sS'3:11:13:1'
p2294
I43
sS'1:29:1:3:1:3:3:2'
p2295
I0
sS'3:9:13'
p2296
I32
sS'3:9:11'
p2297
I31
sS'1:33:1:3:1'
p2298
I1
sS'3:7:5:5:3:1'
p2299
I12
sS'3:11:5:1'
p2300
I35
sS'3:11:5:3'
p2301
I36
sS'3:11:3:1'
p2302
I33
sS'3:7:9:5:3:1'
p2303
I20
sS'3:11:19:3'
p2304
I50
sS'5:1:5'
p2305
I52
sS'3:11:15:1'
p2306
I45
sS'3:11:9:3'
p2307
I40
sS'3:11:15:3'
p2308
I46
sS'3:11:9:1'
p2309
I39
sS'5:1:3'
p2310
I51
sS'3:7:13:5:3:1'
p2311
I26
sS'1:35:1:3:1:3:1'
p2312
I3
sS'3:3'
p2313
I5
sS'3:1'
p2314
I4
sS'3:5'
p2315
I6
sS'3:9:9'
p2316
I30
sS'3:11:11:1'
p2317
I41
sS'3:11:11:3'
p2318
I42
sS'3:9:3'
p2319
I27
sS'1:35:1:3:1:1:1'
p2320
I2
sS'3:7:11:5:3:1'
p2321
I23
sS'3:9:7'
p2322
I29
sS'3:9:5'
p2323
I28
sS'3:7:5:9'
p2324
I14
sS'3:11:13:3'
p2325
I44
sS'3:7:7:5:3:1'
p2326
I17
sS'3:7:5:1'
p2327
I10
sS'3:7:5:3'
p2328
I11
sS'3:7:3:3'
p2329
I8
sS'3:7:5:7'
p2330
I13
ssS'20190815'
p2331
(dp2332
S'5:5:3:1:11:3:1'
p2333
I55
sS'3:1:11'
p2334
I6
sS'3:3:7:3'
p2335
I13
sS'3:3:7:1'
p2336
I12
sS'5:5:3:1:9:3:1'
p2337
I54
sS'3:3:13:3'
p2338
I21
sS'5:5:3:1:3:3:1'
p2339
I51
sS'3:3:13:1'
p2340
I20
sS'3:7:11:1'
p2341
I37
sS'3:7:11:3'
p2342
I38
sS'5:5:3:1:1:3:1'
p2343
I50
sS'3:3:3:3'
p2344
I8
sS'3:3:3:1'
p2345
I7
sS'5:1:3:1'
p2346
I47
sS'3:7:13:3'
p2347
I40
sS'3:7:13:1'
p2348
I39
sS'3:7:17:3'
p2349
I44
sS'3:7:17:1'
p2350
I43
sS'7:17:3:1'
p2351
I63
sS'3:1:3'
p2352
I2
sS'7:7:3:1'
p2353
I58
sS'3:1:7'
p2354
I4
sS'3:7:9:1'
p2355
I35
sS'3:1:5'
p2356
I3
sS'3:7:9:3'
p2357
I36
sS'7:13:3:1'
p2358
I61
sS'3:1:9'
p2359
I5
sS'1:23:1:3:1'
p2360
I1
sS'3:3:11:1'
p2361
I17
sS'3:3:11:3'
p2362
I18
sS'3:3:11:5'
p2363
I19
sS'3:5:9'
p2364
I27
sS'3:7:7:3'
p2365
I34
sS'3:5:7'
p2366
I26
sS'3:5:5'
p2367
I25
sS'3:5:3'
p2368
I24
sS'3:7:15:1'
p2369
I41
sS'3:7:7:1'
p2370
I33
sS'3:5:11'
p2371
I28
sS'3:3:9:1'
p2372
I14
sS'3:3:9:3'
p2373
I15
sS'3:3:9:5'
p2374
I16
sS'7:9:3:1'
p2375
I59
sS'3:7:19:1'
p2376
I45
sS'3:7:19:3'
p2377
I46
sS'7:5:3:1'
p2378
I57
sS'1:1:1:3:3:1:3:1'
p2379
I0
sS'5:5:3:1:5:3:1'
p2380
I52
sS'7:15:3:1'
p2381
I62
sS'3:7:5:3'
p2382
I32
sS'5:5:3:1:7:3:1'
p2383
I53
sS'5:1:3:3'
p2384
I48
sS'5:3:3'
p2385
I49
sS'3:7:15:3'
p2386
I42
sS'7:19:3:1'
p2387
I64
sS'3:7:3:3'
p2388
I30
sS'3:3:5:5'
p2389
I11
sS'7:11:3:1'
p2390
I60
sS'7:3:3:1'
p2391
I56
sS'3:3:5:1'
p2392
I9
sS'3:3:5:3'
p2393
I10
sS'3:7:5:1'
p2394
I31
sS'3:7:3:1'
p2395
I29
sS'3:3:15:1'
p2396
I22
sS'3:3:15:3'
p2397
I23
ssS'12876277'
p2398
(dp2399
S'3:7:7:5'
p2400
I54
sS'3:3:7:7'
p2401
I23
sS'3:7:3:1'
p2402
I48
sS'3:3:7:3'
p2403
I21
sS'3:3:7:1'
p2404
I20
sS'3:7:13:3'
p2405
I60
sS'3:7:7:3'
p2406
I53
sS'3:7:7:1'
p2407
I52
sS'3:3:3:5:3:1'
p2408
I10
sS'3:3:7:9'
p2409
I24
sS'3:3:3:3'
p2410
I9
sS'3:3:3:1'
p2411
I8
sS'3:3:3:7'
p2412
I11
sS'3:5:7:7'
p2413
I39
sS'3:3:5:5:3:1'
p2414
I17
sS'3:5:7:3'
p2415
I37
sS'3:1:3'
p2416
I4
sS'3:3:7:5:3:1'
p2417
I22
sS'3:3:7:11:3:1'
p2418
I25
sS'3:1:7'
p2419
I6
sS'3:7:9:1'
p2420
I55
sS'3:1:5'
p2421
I5
sS'3:7:9:3'
p2422
I56
sS'3:7:11:1'
p2423
I57
sS'3:1:9'
p2424
I7
sS'3:3:3:13'
p2425
I14
sS'3:3:7:19'
p2426
I29
sS'3:3:7:15:3:1'
p2427
I27
sS'3:5:5'
p2428
I35
sS'3:3:7:13'
p2429
I26
sS'3:5:3'
p2430
I34
sS'3:3:5:9:3:1'
p2431
I19
sS'3:7:15:1'
p2432
I61
sS'3:7:15:3'
p2433
I62
sS'3:7:13:1'
p2434
I59
sS'5:5:3:1'
p2435
I65
sS'3:3:3:9:3:1'
p2436
I12
sS'3:3:9:3'
p2437
I32
sS'1:33:1:3:1:1:1'
p2438
I2
sS'3:5:13:1'
p2439
I45
sS'3:5:13:5'
p2440
I47
sS'3:5:13:3'
p2441
I46
sS'5:1:5'
p2442
I64
sS'3:5:11:3'
p2443
I44
sS'5:1:3'
p2444
I63
sS'3:5:11:1'
p2445
I43
sS'3:5:7:5'
p2446
I38
sS'3:3:9:5:3:1'
p2447
I33
sS'3:5:9:3'
p2448
I41
sS'1:33:1:3:1:3:1'
p2449
I3
sS'3:5:9:1'
p2450
I40
sS'3:5:7:1'
p2451
I36
sS'3:3:7:21:3:1'
p2452
I30
sS'3:7:5:3'
p2453
I51
sS'3:7:11:3'
p2454
I58
sS'1:31:1:3:1'
p2455
I1
sS'1:27:1:3:1:11:3:2'
p2456
I0
sS'3:3:9:1'
p2457
I31
sS'3:3:5:7'
p2458
I18
sS'3:3:5:1'
p2459
I15
sS'3:3:5:3'
p2460
I16
sS'3:7:5:1'
p2461
I50
sS'3:3:7:17'
p2462
I28
sS'3:7:3:3'
p2463
I49
sS'3:5:9:5'
p2464
I42
sS'3:3:3:11:3:1'
p2465
I13
ssS'20141835'
p2466
(dp2467
S'3:7:7:8:1:21:3'
p2468
I60
sS'3:3:7:5'
p2469
I21
sS'3:7:7:8:1:21:7'
p2470
I62
sS'3:3:7:3'
p2471
I20
sS'3:7:7:8:1:21:5'
p2472
I61
sS'3:3:7:1'
p2473
I19
sS'7:9:3:17'
p2474
I90
sS'3:3:3:3'
p2475
I15
sS'3:3:3:1'
p2476
I14
sS'3:3:3:5'
p2477
I16
sS'3:7:7:8:1:11:3'
p2478
I50
sS'7:13:3:11'
p2479
I106
sS'3:7:7:8:1:11:7'
p2480
I52
sS'3:7:7:8:1:11:5'
p2481
I51
sS'5:7:3'
p2482
I63
sS'3:7:7:8:1:13:3'
p2483
I53
sS'3:7:7:8:1:17:3'
p2484
I55
sS'3:5:17'
p2485
I36
sS'3:5:15'
p2486
I35
sS'3:5:13'
p2487
I34
sS'3:5:11'
p2488
I33
sS'7:9:3:15'
p2489
I89
sS'3:5:19'
p2490
I37
sS'7:7:3:11'
p2491
I80
sS'7:7:3:13'
p2492
I81
sS'7:21:3:3'
p2493
I123
sS'7:19:3:3'
p2494
I121
sS'7:21:3:1'
p2495
I122
sS'7:19:3:1'
p2496
I120
sS'7:21:3:5'
p2497
I124
sS'1:37:1:3:1'
p2498
I7
sS'5:9:3:1'
p2499
I64
sS'7:11:3:19'
p2500
I100
sS'1:35:1:3:3:3'
p2501
I6
sS'7:11:3:11'
p2502
I96
sS'7:11:3:13'
p2503
I97
sS'7:11:3:15'
p2504
I98
sS'7:11:3:17'
p2505
I99
sS'7:13:3:9'
p2506
I105
sS'7:13:3:1'
p2507
I101
sS'7:13:3:3'
p2508
I102
sS'7:13:3:5'
p2509
I103
sS'7:13:3:7'
p2510
I104
sS'7:3:3:7'
p2511
I68
sS'3:7:7:8:1:5:3'
p2512
I47
sS'3:7:7:8:1:3:3'
p2513
I46
sS'3:3:9:1'
p2514
I22
sS'3:3:9:3'
p2515
I23
sS'3:3:9:5'
p2516
I24
sS'7:23:3:1'
p2517
I125
sS'7:23:3:3'
p2518
I126
sS'3:7:7:8:1:7:3'
p2519
I48
sS'7:23:3:5'
p2520
I127
sS'7:15:3:9'
p2521
I111
sS'7:15:3:7'
p2522
I110
sS'7:15:3:5'
p2523
I109
sS'7:15:3:3'
p2524
I108
sS'7:9:3:13'
p2525
I88
sS'7:9:3:11'
p2526
I87
sS'3:3:5:1'
p2527
I17
sS'3:3:5:3'
p2528
I18
sS'3:7:7:8:1:9:3'
p2529
I49
sS'3:1:13'
p2530
I13
sS'3:1:11'
p2531
I12
sS'3:7:7:3'
p2532
I44
sS'3:7:7:1'
p2533
I43
sS'3:7:7:5'
p2534
I45
sS'3:1:3'
p2535
I8
sS'7:7:3:3'
p2536
I76
sS'7:7:3:1'
p2537
I75
sS'3:1:7'
p2538
I10
sS'7:7:3:7'
p2539
I78
sS'3:1:5'
p2540
I9
sS'7:7:3:5'
p2541
I77
sS'3:1:9'
p2542
I11
sS'7:7:3:9'
p2543
I79
sS'3:3:11:1'
p2544
I25
sS'3:3:11:3'
p2545
I26
sS'3:3:11:5'
p2546
I27
sS'3:5:9'
p2547
I32
sS'3:3:11:7'
p2548
I28
sS'3:5:7'
p2549
I31
sS'3:5:5'
p2550
I30
sS'7:15:3:1'
p2551
I107
sS'3:5:3'
p2552
I29
sS'7:17:3:13'
p2553
I118
sS'7:17:3:11'
p2554
I117
sS'7:9:3:7'
p2555
I85
sS'7:3:3:3'
p2556
I66
sS'7:5:3:9'
p2557
I74
sS'7:17:3:7'
p2558
I115
sS'3:7:7:8:1:15:3'
p2559
I54
sS'7:5:3:1'
p2560
I70
sS'7:5:3:3'
p2561
I71
sS'7:5:3:5'
p2562
I72
sS'7:5:3:7'
p2563
I73
sS'3:7:7:8:1:19:3'
p2564
I56
sS'7:17:3:15'
p2565
I119
sS'3:7:7:8:1:19:7'
p2566
I58
sS'3:7:7:8:1:19:5'
p2567
I57
sS'1:35:1:3:3:1'
p2568
I5
sS'3:7:7:8:1:19:9'
p2569
I59
sS'1:35:1:3:1:1'
p2570
I4
sS'7:3:3:1'
p2571
I65
sS'1:33:1:3:1:1'
p2572
I2
sS'7:9:3:9'
p2573
I86
sS'7:3:3:9'
p2574
I69
sS'7:9:3:5'
p2575
I84
sS'7:3:3:5'
p2576
I67
sS'7:9:3:1'
p2577
I82
sS'7:9:3:3'
p2578
I83
sS'1:1:1:3:3:5:3:1'
p2579
I0
sS'1:33:1:3:3:1'
p2580
I3
sS'7:17:3:5'
p2581
I114
sS'7:11:3:9'
p2582
I95
sS'7:17:3:1'
p2583
I112
sS'7:17:3:3'
p2584
I113
sS'1:29:1:3:1:9:3:4'
p2585
I1
sS'7:17:3:9'
p2586
I116
sS'3:7:3:3'
p2587
I39
sS'7:11:3:3'
p2588
I92
sS'7:11:3:1'
p2589
I91
sS'7:11:3:7'
p2590
I94
sS'7:11:3:5'
p2591
I93
sS'3:7:5:1'
p2592
I40
sS'3:7:5:3'
p2593
I41
sS'3:7:5:5'
p2594
I42
sS'3:7:3:1'
p2595
I38
ssS'21573184'
p2596
(dp2597
S'3:3:17:5'
p2598
I21
sS'3:3:7:3'
p2599
I10
sS'3:3:7:1'
p2600
I9
sS'3:3:23:3'
p2601
I27
sS'3:3:13:3'
p2602
I16
sS'3:3:23:1'
p2603
I26
sS'3:3:13:1'
p2604
I15
sS'1:25:1:3:1'
p2605
I1
sS'3:3:3:3'
p2606
I6
sS'3:3:3:1'
p2607
I5
sS'3:3:21:1'
p2608
I24
sS'3:3:21:3'
p2609
I25
sS'3:3:27:3'
p2610
I31
sS'3:9:9:3:3'
p2611
I73
sS'3:3:27:1'
p2612
I30
sS'3:3:17:3'
p2613
I20
sS'3:1:3'
p2614
I2
sS'3:5:5:3'
p2615
I40
sS'3:5:5:1'
p2616
I39
sS'3:1:7'
p2617
I4
sS'3:5:5:7'
p2618
I42
sS'3:1:5'
p2619
I3
sS'3:5:13:7'
p2620
I58
sS'3:5:3:5:3:3'
p2621
I34
sS'3:3:17:1'
p2622
I19
sS'3:3:25:1'
p2623
I28
sS'3:3:25:3'
p2624
I29
sS'3:3:11:1'
p2625
I13
sS'3:3:11:3'
p2626
I14
sS'3:5:3:3'
p2627
I33
sS'3:5:5:5:3:3'
p2628
I41
sS'3:9:3:4:1:1'
p2629
I65
sS'3:5:3:13'
p2630
I38
sS'3:9:9:3:1'
p2631
I72
sS'3:5:3:11'
p2632
I37
sS'3:9:7:4:1:1'
p2633
I71
sS'3:5:11:5:3:3'
p2634
I53
sS'3:5:9:5:3:3'
p2635
I48
sS'3:9:7:3:3'
p2636
I70
sS'3:9:7:3:1'
p2637
I69
sS'3:3:9:1'
p2638
I11
sS'3:3:9:3'
p2639
I12
sS'3:9:5:3:1'
p2640
I66
sS'3:5:3:9:3:3'
p2641
I36
sS'3:9:5:3:3'
p2642
I67
sS'3:5:13:1'
p2643
I55
sS'3:7:5'
p2644
I60
sS'3:5:11:7'
p2645
I54
sS'3:7:7'
p2646
I61
sS'5:3:5:1'
p2647
I77
sS'3:5:11:3'
p2648
I52
sS'3:7:3'
p2649
I59
sS'3:5:9:9'
p2650
I50
sS'3:9:3:3:3'
p2651
I64
sS'3:5:9:7'
p2652
I49
sS'3:9:3:3:1'
p2653
I63
sS'3:5:13:3'
p2654
I56
sS'3:7:9'
p2655
I62
sS'3:5:9:3'
p2656
I47
sS'3:5:3:7'
p2657
I35
sS'3:5:11:1'
p2658
I51
sS'1:21:1:3:1:9:3:4'
p2659
I0
sS'3:5:7:1'
p2660
I44
sS'3:5:3:1'
p2661
I32
sS'3:5:13:5:3:3'
p2662
I57
sS'3:9:5:4:1:1'
p2663
I68
sS'3:5:5:9'
p2664
I43
sS'3:9:9:4:1:1'
p2665
I74
sS'3:5:7:3'
p2666
I45
sS'5:3:3:1'
p2667
I76
sS'3:3:5:1'
p2668
I7
sS'3:5:9:1'
p2669
I46
sS'3:3:5:3'
p2670
I8
sS'5:1:3'
p2671
I75
sS'3:3:19:1'
p2672
I22
sS'3:3:19:3'
p2673
I23
sS'3:3:15:1'
p2674
I17
sS'3:3:15:3'
p2675
I18
ssS'15550174'
p2676
(dp2677
S'3:1:13'
p2678
I12
sS'3:3:7:7'
p2679
I20
sS'3:1:11'
p2680
I11
sS'3:3:7:5'
p2681
I19
sS'1:19:1:3:5:1'
p2682
I5
sS'5:5:5:3:1'
p2683
I43
sS'1:19:1:3:5:3'
p2684
I6
sS'3:7:7:3'
p2685
I36
sS'3:7:7:1'
p2686
I35
sS'5:5:7:3:1'
p2687
I44
sS'3:3:7:9'
p2688
I21
sS'5:1:3:1'
p2689
I40
sS'3:3:7:3'
p2690
I18
sS'3:1:3'
p2691
I7
sS'5:5:9:3:1'
p2692
I45
sS'3:1:7'
p2693
I9
sS'3:7:9:1'
p2694
I37
sS'3:1:5'
p2695
I8
sS'3:7:9:3'
p2696
I38
sS'3:1:9'
p2697
I10
sS'3:3:7:1'
p2698
I17
sS'3:3:11:1'
p2699
I27
sS'3:3:11:3'
p2700
I28
sS'3:3:11:5'
p2701
I29
sS'1:1:1:3:3:5:3:1'
p2702
I0
sS'3:5:3'
p2703
I30
sS'3:3:9:9'
p2704
I26
sS'3:3:9:3'
p2705
I23
sS'1:19:1:3:1:1'
p2706
I1
sS'1:19:1:3:1:3'
p2707
I2
sS'3:3:9:5'
p2708
I24
sS'3:3:9:7'
p2709
I25
sS'5:1:3:3'
p2710
I41
sS'1:19:1:3:3:3'
p2711
I4
sS'1:19:1:3:3:1'
p2712
I3
sS'5:5:3:3:1'
p2713
I42
sS'3:9:3'
p2714
I39
sS'3:3:9:1'
p2715
I22
sS'3:7:3:3'
p2716
I32
sS'3:3:5:5'
p2717
I16
sS'3:3:5:1'
p2718
I14
sS'3:3:5:3'
p2719
I15
sS'3:7:5:1'
p2720
I33
sS'3:7:5:3'
p2721
I34
sS'3:3:3'
p2722
I13
sS'3:7:3:1'
p2723
I31
ssS'20337593'
p2724
(dp2725
S'3:7:15'
p2726
I48
sS'3:3:7:5'
p2727
I15
sS'3:7:11'
p2728
I46
sS'3:3:7:3'
p2729
I14
sS'3:7:13'
p2730
I47
sS'3:5:3:3'
p2731
I21
sS'3:5:9:5:3:3'
p2732
I34
sS'3:5:3:9'
p2733
I24
sS'3:3:3:3'
p2734
I6
sS'3:3:3:1'
p2735
I5
sS'3:3:3:5'
p2736
I7
sS'3:5:7:3'
p2737
I30
sS'3:5:3:1'
p2738
I20
sS'3:1:3'
p2739
I2
sS'3:5:5:3'
p2740
I26
sS'3:5:5:1'
p2741
I25
sS'3:1:7'
p2742
I4
sS'3:5:5:7'
p2743
I28
sS'3:1:5'
p2744
I3
sS'3:5:3:5:3:3'
p2745
I22
sS'5:5:3'
p2746
I51
sS'3:3:7:1'
p2747
I13
sS'3:5:3:7'
p2748
I23
sS'3:3:11:1'
p2749
I18
sS'3:3:11:3'
p2750
I19
sS'1:1:1:3:3:5:3:1'
p2751
I0
sS'3:5:5:5:3:3'
p2752
I27
sS'5:3:3'
p2753
I50
sS'3:5:7:5:3:3'
p2754
I31
sS'1:19:1:3:1'
p2755
I1
sS'3:3:9:1'
p2756
I16
sS'3:3:9:3'
p2757
I17
sS'3:7:5:3:3'
p2758
I43
sS'3:5:11:7'
p2759
I40
sS'3:5:11:9'
p2760
I41
sS'3:5:11:3'
p2761
I38
sS'3:7:3'
p2762
I42
sS'3:5:9:9'
p2763
I36
sS'3:5:9:7'
p2764
I35
sS'3:7:9'
p2765
I45
sS'3:5:9:3'
p2766
I33
sS'3:5:9:1'
p2767
I32
sS'3:5:11:1'
p2768
I37
sS'3:5:11:5:3:3'
p2769
I39
sS'3:5:7:1'
p2770
I29
sS'3:7:7'
p2771
I44
sS'3:3:5:5'
p2772
I10
sS'3:3:5:7'
p2773
I11
sS'3:3:5:1'
p2774
I8
sS'3:3:5:3'
p2775
I9
sS'5:1:3'
p2776
I49
sS'3:3:5:9'
p2777
I12
ssS'21629263'
p2778
(dp2779
S'7:13:3:3'
p2780
I68
sS'3:11:23:3'
p2781
I58
sS'3:11:23:1'
p2782
I57
sS'3:7:3:1'
p2783
I6
sS'3:11:3:3'
p2784
I33
sS'3:7:7:3'
p2785
I14
sS'3:11:17:3'
p2786
I51
sS'3:7:7:1'
p2787
I13
sS'3:7:11:1'
p2788
I17
sS'7:15:3:3'
p2789
I69
sS'3:7:11:3'
p2790
I18
sS'3:11:7:3'
p2791
I39
sS'3:15:3'
p2792
I60
sS'3:7:13:5'
p2793
I22
sS'3:13:3'
p2794
I59
sS'3:7:13:3'
p2795
I21
sS'3:11:9:1'
p2796
I40
sS'3:7:13:1'
p2797
I20
sS'3:7:17:3'
p2798
I26
sS'3:11:13:1'
p2799
I46
sS'3:7:17:1'
p2800
I25
sS'7:9:3:3'
p2801
I66
sS'7:7:3:3'
p2802
I65
sS'3:11:7:1'
p2803
I38
sS'3:7:9:1'
p2804
I15
sS'3:7:9:3'
p2805
I16
sS'3:11:17:5'
p2806
I52
sS'3:11:19:1'
p2807
I53
sS'3:11:5:1'
p2808
I34
sS'3:11:19:3'
p2809
I54
sS'7:5:3:3'
p2810
I64
sS'3:7:11:5'
p2811
I19
sS'3:11:15:1'
p2812
I48
sS'1:39:1:3:1'
p2813
I2
sS'3:7:15:1'
p2814
I23
sS'3:7:15:3'
p2815
I24
sS'3:11:3:1'
p2816
I32
sS'3:11:5:5'
p2817
I36
sS'3:11:17:1'
p2818
I50
sS'3:11:5:7'
p2819
I37
sS'1:1:1:3:3:5:3:1'
p2820
I0
sS'7:3:3:3'
p2821
I63
sS'3:11:9:5'
p2822
I42
sS'3:11:9:3'
p2823
I41
sS'3:11:9:7'
p2824
I43
sS'3:7:19:1'
p2825
I27
sS'5:1:3'
p2826
I62
sS'3:7:19:3'
p2827
I28
sS'3:3'
p2828
I4
sS'3:1'
p2829
I3
sS'3:17:3:1:3'
p2830
I61
sS'3:5'
p2831
I5
sS'3:7:5:3'
p2832
I10
sS'3:11:11:1'
p2833
I44
sS'3:11:11:3'
p2834
I45
sS'3:9:3'
p2835
I29
sS'3:11:5:3'
p2836
I35
sS'7:17:3:3'
p2837
I70
sS'3:9:7'
p2838
I31
sS'3:9:5'
p2839
I30
sS'3:7:3:3'
p2840
I7
sS'1:37:1:3:1'
p2841
I1
sS'7:11:3:3'
p2842
I67
sS'3:11:13:3'
p2843
I47
sS'3:11:15:3'
p2844
I49
sS'3:7:5:1'
p2845
I9
sS'3:7:3:5'
p2846
I8
sS'3:11:21:1'
p2847
I55
sS'3:7:5:5'
p2848
I11
sS'3:11:21:3'
p2849
I56
sS'3:7:5:7'
p2850
I12
ssS'12370254'
p2851
(dp2852
S'3:1:13'
p2853
I7
sS'3:1:11'
p2854
I6
sS'3:5:3:5:3:1'
p2855
I23
sS'3:3:7:3'
p2856
I14
sS'3:3:7:1'
p2857
I13
sS'5:5:3:1'
p2858
I60
sS'3:5:9:5:3:1'
p2859
I35
sS'3:5:11:1'
p2860
I36
sS'3:5:3:9'
p2861
I25
sS'3:7:11:3'
p2862
I54
sS'3:3:3:3'
p2863
I9
sS'3:3:3:1'
p2864
I8
sS'3:7:13:3'
p2865
I56
sS'3:3:3:5'
p2866
I10
sS'3:7:9:5'
p2867
I51
sS'3:5:3:1'
p2868
I21
sS'1:17:1:3:1:7:3:2'
p2869
I0
sS'3:5:5:3'
p2870
I27
sS'3:7:13:5:3:1'
p2871
I57
sS'3:5:5:1'
p2872
I26
sS'3:1:7'
p2873
I4
sS'3:5:13:5:3:1'
p2874
I42
sS'3:1:5'
p2875
I3
sS'3:5:5:5'
p2876
I28
sS'3:7:11:1'
p2877
I53
sS'3:1:9'
p2878
I5
sS'3:5:3:3'
p2879
I22
sS'3:5:3:7'
p2880
I24
sS'3:3:11:1'
p2881
I19
sS'3:3:11:3'
p2882
I20
sS'3:7:7:3'
p2883
I48
sS'3:5:11:5:3:1'
p2884
I38
sS'3:7:9:1'
p2885
I49
sS'3:1:3'
p2886
I2
sS'3:7:7:1'
p2887
I47
sS'3:7:13:1'
p2888
I55
sS'3:5:13:1'
p2889
I40
sS'3:5:7:5:3:1'
p2890
I32
sS'3:3:9:1'
p2891
I15
sS'3:3:9:3'
p2892
I16
sS'3:3:9:5'
p2893
I17
sS'3:3:9:7'
p2894
I18
sS'5:1:5'
p2895
I59
sS'3:5:11:7'
p2896
I39
sS'3:7:9:7'
p2897
I52
sS'3:5:11:3'
p2898
I37
sS'3:7:3'
p2899
I43
sS'3:5:5:7:3:1'
p2900
I29
sS'3:5:13:3'
p2901
I41
sS'3:5:9:3'
p2902
I34
sS'3:5:9:1'
p2903
I33
sS'3:5:7:1'
p2904
I30
sS'1:21:1:3:1'
p2905
I1
sS'3:7:9:3'
p2906
I50
sS'3:5:7:3'
p2907
I31
sS'3:3:5:1'
p2908
I11
sS'3:3:5:3'
p2909
I12
sS'5:1:3'
p2910
I58
sS'3:7:5:1'
p2911
I44
sS'3:7:5:3'
p2912
I45
sS'3:7:5:5'
p2913
I46
ssS'24312625'
p2914
(dp2915
S'1:1:1:3:3:3:3:1'
p2916
I0
sS'3:3:7:3'
p2917
I18
sS'3:3:7:1'
p2918
I17
sS'3:7:13:3'
p2919
I42
sS'3:7:7:3'
p2920
I36
sS'1:17:1:3:1:5:3:10'
p2921
I3
sS'3:7:7:1'
p2922
I35
sS'3:3:9:5:3:3'
p2923
I23
sS'3:3:3:5:3:3'
p2924
I11
sS'3:7:17:3'
p2925
I46
sS'3:3:3:3'
p2926
I10
sS'3:3:3:1'
p2927
I9
sS'3:3:3:7'
p2928
I12
sS'3:7:13:1'
p2929
I41
sS'3:3:5:5:3:3'
p2930
I15
sS'3:7:17:1'
p2931
I45
sS'3:1:3'
p2932
I5
sS'3:3:7:5:3:3'
p2933
I19
sS'3:1:7'
p2934
I7
sS'3:7:9:1'
p2935
I37
sS'3:1:5'
p2936
I6
sS'3:7:9:3'
p2937
I38
sS'3:5:7:3:3'
p2938
I27
sS'3:1:9'
p2939
I8
sS'3:5:9'
p2940
I28
sS'3:5:5'
p2941
I26
sS'3:5:3'
p2942
I25
sS'3:9:7:4:1:1'
p2943
I57
sS'3:7:15:1'
p2944
I43
sS'3:7:15:3'
p2945
I44
sS'3:9:7:3:3'
p2946
I56
sS'3:9:7:3:1'
p2947
I55
sS'3:3:9:1'
p2948
I21
sS'3:3:9:3'
p2949
I22
sS'3:9:5:3:1'
p2950
I52
sS'3:9:5:3:3'
p2951
I53
sS'3:3:9:7'
p2952
I24
sS'3:9:3:4:1:1'
p2953
I51
sS'3:7:19:3'
p2954
I48
sS'3:7:19:1'
p2955
I47
sS'5:1:3'
p2956
I58
sS'3:7:5:1'
p2957
I33
sS'3:9:3:3:3'
p2958
I50
sS'3:7:11:1'
p2959
I39
sS'3:9:3:3:1'
p2960
I49
sS'3:7:11:3'
p2961
I40
sS'3:7:5:3'
p2962
I34
sS'1:21:1:3:1'
p2963
I4
sS'3:9:5:4:1:1'
p2964
I54
sS'1:17:1:3:1:5:3:4'
p2965
I1
sS'1:17:1:3:1:5:3:7'
p2966
I2
sS'3:3:5:7'
p2967
I16
sS'3:3:7:7'
p2968
I20
sS'3:3:5:1'
p2969
I13
sS'3:3:5:3'
p2970
I14
sS'3:7:3:7'
p2971
I32
sS'3:7:3:5'
p2972
I31
sS'3:7:3:3'
p2973
I30
sS'3:7:3:1'
p2974
I29
ssS'9625767'
p2975
(dp2976
S'5:5:3:1:11:3:1'
p2977
I42
sS'3:5:17:1'
p2978
I18
sS'3:5:17:3'
p2979
I19
sS'3:5:3:1'
p2980
I4
sS'3:5:3:3'
p2981
I5
sS'5:1:7:3:1'
p2982
I34
sS'3:7:7:3'
p2983
I25
sS'5:5:3:1:3:3:1'
p2984
I38
sS'3:7:7:1'
p2985
I24
sS'3:7:11:1'
p2986
I28
sS'3:7:11:3'
p2987
I29
sS'5:5:3:1:1:3:1'
p2988
I37
sS'3:5:7:1'
p2989
I8
sS'3:5:7:3'
p2990
I9
sS'3:3'
p2991
I3
sS'3:5:5:3'
p2992
I7
sS'3:5:5:1'
p2993
I6
sS'3:7:9:1'
p2994
I26
sS'5:5:3:1:7:3:1'
p2995
I40
sS'3:7:9:3'
p2996
I27
sS'1:29:1:3:1:3:3:2'
p2997
I0
sS'5:5:3:1:9:3:1'
p2998
I41
sS'5:1:9:3:1'
p2999
I35
sS'3:7:11:5'
p3000
I30
sS'1:33:1:3:1'
p3001
I1
sS'3:7:11:7'
p3002
I31
sS'5:1:3:3:1'
p3003
I32
sS'5:5:3:1:17:3:1'
p3004
I45
sS'5:5:3:1:15:3:1'
p3005
I44
sS'3:5:13:1'
p3006
I14
sS'3:5:13:3'
p3007
I15
sS'5:1:5:3:1'
p3008
I33
sS'3:5:11:3'
p3009
I13
sS'3:5:11:1'
p3010
I12
sS'3:5:15:3'
p3011
I17
sS'5:5:3:1:13:3:1'
p3012
I43
sS'3:5:15:1'
p3013
I16
sS'5:5:3:1:5:3:1'
p3014
I39
sS'3:5:9:3'
p3015
I11
sS'3:5:9:1'
p3016
I10
sS'5:3:3'
p3017
I36
sS'3:7:5:1'
p3018
I22
sS'3:1'
p3019
I2
sS'3:7:5:3'
p3020
I23
sS'3:7:3:3'
p3021
I21
sS'3:7:3:1'
p3022
I20
ssS'17937911'
p3023
(dp3024
S'3:1:11'
p3025
I7
sS'7:13:3:3'
p3026
I79
sS'3:3:7:3'
p3027
I14
sS'3:3:7:1'
p3028
I13
sS'7:9:3:1'
p3029
I68
sS'3:3:13:3'
p3030
I22
sS'3:3:13:1'
p3031
I21
sS'7:11:3:9'
p3032
I77
sS'3:7:11:1'
p3033
I44
sS'7:15:3:1'
p3034
I81
sS'3:3:13:5'
p3035
I23
sS'7:9:3:5'
p3036
I70
sS'3:3:3:3'
p3037
I9
sS'3:3:3:1'
p3038
I8
sS'3:7:13:3'
p3039
I47
sS'3:3:3:5'
p3040
I10
sS'7:9:3:9'
p3041
I72
sS'3:7:17:3'
p3042
I52
sS'3:7:17:1'
p3043
I51
sS'3:7:5:3'
p3044
I39
sS'3:1:3'
p3045
I3
sS'5:9:3:1'
p3046
I56
sS'7:5:3:3'
p3047
I63
sS'3:1:7'
p3048
I5
sS'3:7:9:1'
p3049
I42
sS'3:1:5'
p3050
I4
sS'3:7:9:3'
p3051
I43
sS'7:13:3:1'
p3052
I78
sS'3:1:9'
p3053
I6
sS'7:3:3:9'
p3054
I61
sS'7:13:3:5'
p3055
I80
sS'3:7:15:3'
p3056
I49
sS'7:11:3:3'
p3057
I74
sS'3:3:11:1'
p3058
I19
sS'3:3:11:3'
p3059
I20
sS'7:11:3:5'
p3060
I75
sS'3:5:9'
p3061
I30
sS'1:1:1:3:3:5:3:1'
p3062
I0
sS'3:5:7'
p3063
I29
sS'3:5:5'
p3064
I28
sS'3:7:17:5'
p3065
I53
sS'1:33:1:3:1'
p3066
I1
sS'7:11:3:7'
p3067
I76
sS'3:5:17'
p3068
I34
sS'3:7:15:1'
p3069
I48
sS'3:5:15'
p3070
I33
sS'3:7:7:1'
p3071
I40
sS'3:5:13'
p3072
I32
sS'3:7:15:5'
p3073
I50
sS'3:5:11'
p3074
I31
sS'7:7:3:3'
p3075
I65
sS'7:9:3:7'
p3076
I71
sS'3:3:9:1'
p3077
I15
sS'7:15:7:1:1'
p3078
I82
sS'3:3:9:3'
p3079
I16
sS'3:7:7:3'
p3080
I41
sS'3:3:9:5'
p3081
I17
sS'7:3:3:3'
p3082
I58
sS'3:3:9:7'
p3083
I18
sS'7:7:3:1'
p3084
I64
sS'3:7:5:1'
p3085
I38
sS'3:7:13:1'
p3086
I46
sS'3:7:11:3'
p3087
I45
sS'7:11:3:1'
p3088
I73
sS'7:5:3:1'
p3089
I62
sS'7:7:3:7'
p3090
I67
sS'3:7:3:5'
p3091
I37
sS'7:9:3:3'
p3092
I69
sS'3:5:3'
p3093
I27
sS'1:35:1:3:1'
p3094
I2
sS'7:7:3:5'
p3095
I66
sS'3:7:3:3'
p3096
I36
sS'5:7:3'
p3097
I55
sS'5:3:3'
p3098
I54
sS'7:3:3:1'
p3099
I57
sS'3:3:5:1'
p3100
I11
sS'7:3:3:7'
p3101
I60
sS'3:3:5:3'
p3102
I12
sS'3:3:15:5'
p3103
I26
sS'3:7:3:1'
p3104
I35
sS'7:3:3:5'
p3105
I59
sS'3:3:15:1'
p3106
I24
sS'3:3:15:3'
p3107
I25
ssS'12515821'
p3108
(dp3109
S'3:5:3:5'
p3110
I21
sS'3:5:3:7'
p3111
I22
sS'3:5:3:1'
p3112
I19
sS'3:3:5:3:1'
p3113
I5
sS'3:5:3:3'
p3114
I20
sS'1:25:1:3:1'
p3115
I1
sS'1:27:1:3:1:1:1'
p3116
I2
sS'3:3:13:3:1'
p3117
I9
sS'3:5:7:1'
p3118
I27
sS'3:5:7:3'
p3119
I28
sS'3:5:7:5'
p3120
I29
sS'1:21:1:3:1:13:3:2'
p3121
I0
sS'3:1:3'
p3122
I3
sS'3:5:5:3'
p3123
I24
sS'3:5:5:1'
p3124
I23
sS'3:5:5:7'
p3125
I26
sS'3:3:29:3:1'
p3126
I17
sS'3:3:3'
p3127
I4
sS'3:3:7'
p3128
I6
sS'3:3:27'
p3129
I16
sS'3:3:21'
p3130
I13
sS'3:3:23'
p3131
I14
sS'3:3:9'
p3132
I7
sS'5:1:5'
p3133
I35
sS'3:5:11:3'
p3134
I33
sS'5:1:3'
p3135
I34
sS'3:5:11:1'
p3136
I32
sS'3:5:9:3'
p3137
I31
sS'3:5:9:1'
p3138
I30
sS'3:3:25:3:1'
p3139
I15
sS'3:5:5:5'
p3140
I25
sS'3:3:17:3:1'
p3141
I11
sS'3:3:11'
p3142
I8
sS'5:5:3:1'
p3143
I36
sS'3:3:15'
p3144
I10
sS'3:3:19'
p3145
I12
sS'3:3:31'
p3146
I18
ssS'19783983'
p3147
(dp3148
S'3:1:13'
p3149
I7
sS'3:1:11'
p3150
I6
sS'3:1:17'
p3151
I9
sS'3:3:7:3'
p3152
I15
sS'3:1:15'
p3153
I8
sS'3:3:7:1'
p3154
I14
sS'3:3:13:3'
p3155
I21
sS'3:3:13:1'
p3156
I20
sS'7:3:3:3'
p3157
I27
sS'7:9:3:3'
p3158
I30
sS'3:3:3:3'
p3159
I11
sS'3:3:3:1'
p3160
I10
sS'5:3:3:1'
p3161
I26
sS'3:1:3'
p3162
I2
sS'7:7:3:3'
p3163
I29
sS'7:5:3:3'
p3164
I28
sS'3:1:7'
p3165
I4
sS'3:1:5'
p3166
I3
sS'1:21:1:3:1:5:3:4'
p3167
I1
sS'3:1:9'
p3168
I5
sS'3:3:11:1'
p3169
I18
sS'3:3:11:3'
p3170
I19
sS'3:3:13:5:3'
p3171
I22
sS'3:3:9:1'
p3172
I16
sS'3:3:9:3'
p3173
I17
sS'5:1:3'
p3174
I25
sS'1:1:1:3:3:1:3:1'
p3175
I0
sS'3:3:13:7:3'
p3176
I23
sS'3:3:13:9:3'
p3177
I24
sS'7:11:3:3'
p3178
I31
sS'3:3:5:1'
p3179
I12
sS'3:3:5:3'
p3180
I13
ssS'17470642'
p3181
(dp3182
S'3:11:5'
p3183
I33
sS'3:11:7'
p3184
I34
sS'3:13:5:1'
p3185
I40
sS'3:13:3:1'
p3186
I38
sS'3:9:9:5:3:1'
p3187
I25
sS'3:11:3'
p3188
I32
sS'3:9:5:7'
p3189
I16
sS'3:13:7:5:5'
p3190
I45
sS'3:11:9'
p3191
I35
sS'3:9:11:3'
p3192
I29
sS'3:9:9:9'
p3193
I27
sS'3:9:11:7'
p3194
I31
sS'3:13:19:3'
p3195
I59
sS'3:9:9:3'
p3196
I24
sS'3:9:9:1'
p3197
I23
sS'3:9:9:7'
p3198
I26
sS'3:9:11:5:3:1'
p3199
I30
sS'3:13:13:1'
p3200
I51
sS'3:1'
p3201
I4
sS'3:13:15:3'
p3202
I54
sS'3:13:15:1'
p3203
I53
sS'3:13:5:3'
p3204
I41
sS'3:9:5:1'
p3205
I13
sS'3:9:7:11'
p3206
I22
sS'3:11:11'
p3207
I36
sS'3:11:13'
p3208
I37
sS'3:9:7:7'
p3209
I20
sS'3:9:7:1'
p3210
I17
sS'3:9:7:3'
p3211
I18
sS'3:13:7:3:3'
p3212
I43
sS'3:13:3:3'
p3213
I39
sS'1:39:1:3:1'
p3214
I1
sS'3:13:17:1'
p3215
I56
sS'3:9:3:1'
p3216
I8
sS'3:9:3:3'
p3217
I9
sS'3:9:5:3'
p3218
I14
sS'1:35:1:3:1:5:3:2'
p3219
I0
sS'3:9:3:7'
p3220
I11
sS'3:13:17:3'
p3221
I57
sS'5:1:5'
p3222
I61
sS'3:13:7:1'
p3223
I42
sS'5:1:7'
p3224
I62
sS'3:13:13:3'
p3225
I52
sS'1:41:1:3:1:3:1'
p3226
I3
sS'5:1:3'
p3227
I60
sS'3:3'
p3228
I5
sS'3:9:7:5:3:1'
p3229
I19
sS'3:7'
p3230
I7
sS'3:5'
p3231
I6
sS'3:9:5:5:3:1'
p3232
I15
sS'3:9:3:9:3:1'
p3233
I12
sS'3:13:19:1'
p3234
I58
sS'3:13:11:3'
p3235
I50
sS'3:13:15:5'
p3236
I55
sS'3:13:9:5'
p3237
I48
sS'3:13:9:3'
p3238
I47
sS'3:13:9:1'
p3239
I46
sS'3:9:11:1'
p3240
I28
sS'3:13:7:5:3'
p3241
I44
sS'3:9:3:5:3:1'
p3242
I10
sS'3:13:11:1'
p3243
I49
sS'1:41:1:3:1:1:1'
p3244
I2
sS'3:9:7:9:3:1'
p3245
I21
ssS'11777939'
p3246
(dp3247
S'3:3:7:7'
p3248
I20
sS'3:3:5:1'
p3249
I9
sS'3:3:7:3'
p3250
I18
sS'3:3:7:1'
p3251
I17
sS'5:5:3:1'
p3252
I49
sS'1:25:1:3:1'
p3253
I1
sS'3:3:9:5:3:1'
p3254
I24
sS'3:3:3:3'
p3255
I5
sS'3:3:3:1'
p3256
I4
sS'3:3:3:7'
p3257
I7
sS'3:3:3:9'
p3258
I8
sS'3:1:3'
p3259
I2
sS'3:3:7:5:3:1'
p3260
I19
sS'3:3:5:5:3:1'
p3261
I11
sS'3:1:5'
p3262
I3
sS'3:5:7:3:1'
p3263
I33
sS'3:3:11:5:3:1'
p3264
I29
sS'3:3:11:1'
p3265
I27
sS'3:3:11:3'
p3266
I28
sS'3:5:9'
p3267
I34
sS'3:3:11:7'
p3268
I30
sS'3:5:5'
p3269
I32
sS'1:21:1:3:1:7:3:2'
p3270
I0
sS'3:5:3'
p3271
I31
sS'3:3:5:9:3:1'
p3272
I13
sS'3:3:9:9'
p3273
I26
sS'3:5:15'
p3274
I37
sS'3:5:13'
p3275
I36
sS'3:5:11'
p3276
I35
sS'3:3:9:1'
p3277
I22
sS'3:3:9:3'
p3278
I23
sS'3:3:3:5:3:1'
p3279
I6
sS'3:7:5:3:3'
p3280
I41
sS'3:7:5:3:7'
p3281
I43
sS'3:7:5:3:5'
p3282
I42
sS'3:7:5:3:9'
p3283
I44
sS'3:3:9:7'
p3284
I25
sS'5:1:5'
p3285
I48
sS'3:3:5:13:3:1'
p3286
I15
sS'3:7:5:3:13'
p3287
I46
sS'3:7:5:3:11'
p3288
I45
sS'3:3:5:15'
p3289
I16
sS'3:3:5:11'
p3290
I14
sS'3:3:5:7'
p3291
I12
sS'3:3:7:9:3:1'
p3292
I21
sS'3:3:5:3'
p3293
I10
sS'5:1:3'
p3294
I47
sS'3:7:5:1'
p3295
I40
sS'3:7:3:3'
p3296
I39
sS'3:7:3:1'
p3297
I38
ssS'20929976'
p3298
(dp3299
S'3:7:7:9'
p3300
I34
sS'1:19:1:3:5:1'
p3301
I5
sS'3:7:9:11'
p3302
I40
sS'3:5:3:3'
p3303
I12
sS'3:7:7:3'
p3304
I31
sS'3:7:7:1'
p3305
I30
sS'3:7:7:7'
p3306
I33
sS'3:7:11:3'
p3307
I43
sS'3:5:7:1'
p3308
I15
sS'3:5:7:3'
p3309
I16
sS'3:9:9:5'
p3310
I56
sS'3:7:5:7'
p3311
I28
sS'3:9:9:3'
p3312
I55
sS'3:9:9:1'
p3313
I54
sS'3:9:9:7'
p3314
I57
sS'3:5:3:1'
p3315
I11
sS'3:5:5:3'
p3316
I14
sS'3:5:5:1'
p3317
I13
sS'3:7:9:1'
p3318
I35
sS'3:7:9:3'
p3319
I36
sS'3:7:3:5:3:1'
p3320
I23
sS'1:19:1:3:5:3'
p3321
I6
sS'3:7:9:9'
p3322
I39
sS'1:19:1:3:7:3'
p3323
I8
sS'3:9:7:1'
p3324
I52
sS'5:3:9'
p3325
I63
sS'1:1:1:3:3:5:3:1'
p3326
I0
sS'3:7:11:9'
p3327
I46
sS'5:3:5'
p3328
I61
sS'1:19:1:3:7:1'
p3329
I7
sS'5:3:3'
p3330
I60
sS'3:7:5:5:3:1'
p3331
I27
sS'3:7:9:5:3:1'
p3332
I37
sS'3:9:5:3'
p3333
I51
sS'3:9:5:1'
p3334
I50
sS'3:9:7:3'
p3335
I53
sS'1:19:1:3:1:1'
p3336
I1
sS'3:7:9:13'
p3337
I41
sS'1:19:1:3:1:3'
p3338
I2
sS'3:7:11:1'
p3339
I42
sS'1:19:1:3:3:3'
p3340
I4
sS'1:19:1:3:3:1'
p3341
I3
sS'3:5:11:3'
p3342
I20
sS'3:5:11:1'
p3343
I19
sS'3:3'
p3344
I10
sS'3:1'
p3345
I9
sS'3:5:9:3'
p3346
I18
sS'3:5:9:1'
p3347
I17
sS'3:7:5:1'
p3348
I25
sS'3:7:11:7:3:1'
p3349
I45
sS'3:9:3'
p3350
I49
sS'3:7:11:5:3:1'
p3351
I44
sS'3:7:11:13'
p3352
I48
sS'5:1:3:1'
p3353
I59
sS'5:3:7'
p3354
I62
sS'3:7:5:9'
p3355
I29
sS'3:9:9:9'
p3356
I58
sS'3:7:7:5:3:1'
p3357
I32
sS'3:7:11:11'
p3358
I47
sS'3:7:3:7'
p3359
I24
sS'3:7:9:7'
p3360
I38
sS'3:7:5:3'
p3361
I26
sS'3:7:3:3'
p3362
I22
sS'3:7:3:1'
p3363
I21
ssS'8376945'
p3364
(dp3365
S'1:9:1:3:1'
p3366
I0
ssS'19112497'
p3367
(dp3368
S'3:3:7:3'
p3369
I10
sS'3:3:7:1'
p3370
I9
sS'3:3:13:3'
p3371
I19
sS'3:3:13:1'
p3372
I18
sS'3:3:9:5:3:3'
p3373
I14
sS'3:3:3:5:3:3'
p3374
I5
sS'3:7:17:3'
p3375
I42
sS'3:3:3:3'
p3376
I4
sS'3:9:5:4:1:1'
p3377
I48
sS'3:3:3:1'
p3378
I3
sS'3:7:13:3'
p3379
I38
sS'3:7:13:1'
p3380
I37
sS'3:9:7:3:1'
p3381
I49
sS'3:3:5:5:3:3'
p3382
I8
sS'3:7:17:1'
p3383
I41
sS'3:1:3'
p3384
I2
sS'3:3:7:5:3:3'
p3385
I11
sS'3:7:9:1'
p3386
I33
sS'3:5:9:3:3'
p3387
I24
sS'3:7:9:3'
p3388
I34
sS'1:23:1:3:1'
p3389
I1
sS'3:3:11:5:3:3'
p3390
I17
sS'3:3:11:1'
p3391
I15
sS'1:19:1:3:1:5:3:4'
p3392
I0
sS'3:3:11:3'
p3393
I16
sS'3:7:7:3'
p3394
I32
sS'3:5:7'
p3395
I23
sS'3:5:5'
p3396
I22
sS'3:5:3'
p3397
I21
sS'3:3:13:5:3:3'
p3398
I20
sS'3:9:7:4:1:1'
p3399
I51
sS'3:7:15:1'
p3400
I39
sS'3:7:7:1'
p3401
I31
sS'3:5:13'
p3402
I26
sS'3:5:11'
p3403
I25
sS'3:3:9:1'
p3404
I12
sS'3:3:9:3'
p3405
I13
sS'3:9:5:3:1'
p3406
I46
sS'3:9:5:3:3'
p3407
I47
sS'3:7:11:1'
p3408
I35
sS'5:1:3'
p3409
I52
sS'3:9:3:3:3'
p3410
I44
sS'3:9:3:3:1'
p3411
I43
sS'3:7:11:3'
p3412
I36
sS'3:9:7:3:3'
p3413
I50
sS'3:9:3:4:1:1'
p3414
I45
sS'3:7:15:3'
p3415
I40
sS'5:5:5:1'
p3416
I54
sS'5:5:3:1'
p3417
I53
sS'3:3:5:1'
p3418
I6
sS'3:3:5:3'
p3419
I7
sS'3:7:5:1'
p3420
I29
sS'3:7:5:3'
p3421
I30
sS'3:7:3:3'
p3422
I28
sS'3:7:3:1'
p3423
I27
ssS'19875615'
p3424
(dp3425
S'3:11:5'
p3426
I48
sS'3:11:7'
p3427
I49
sS'3:11:17'
p3428
I54
sS'3:11:3'
p3429
I47
sS'3:9:3:1'
p3430
I34
sS'3:7:7:3'
p3431
I19
sS'3:9:5:7'
p3432
I40
sS'3:7:7:1'
p3433
I18
sS'3:7:7:7'
p3434
I21
sS'3:7:7:5'
p3435
I20
sS'3:9:3:3'
p3436
I35
sS'5:1:3:1'
p3437
I55
sS'3:7:13:3'
p3438
I28
sS'3:7:13:1'
p3439
I27
sS'3:7:17:3'
p3440
I33
sS'3:7:17:1'
p3441
I32
sS'3:9:5:3'
p3442
I38
sS'3:7:9:5'
p3443
I24
sS'3:9:7:5:3:1'
p3444
I44
sS'3:7:9:1'
p3445
I22
sS'3:7:9:3'
p3446
I23
sS'3:9:7:9:3:1'
p3447
I46
sS'3:11:11'
p3448
I51
sS'3:11:13'
p3449
I52
sS'3:9:7:7'
p3450
I45
sS'1:23:1:3:1:3'
p3451
I2
sS'3:9:5:9:3:1'
p3452
I41
sS'1:23:1:3:1:1'
p3453
I1
sS'1:1:1:3:3:5:3:1'
p3454
I0
sS'3:11:15'
p3455
I53
sS'5:3:5'
p3456
I57
sS'5:3:3'
p3457
I56
sS'3:9:7:1'
p3458
I42
sS'1:23:1:3:5:3'
p3459
I6
sS'3:7:15:1'
p3460
I29
sS'1:23:1:3:5:1'
p3461
I5
sS'3:7:15:3'
p3462
I30
sS'1:23:1:3:3:1'
p3463
I3
sS'3:7:15:5'
p3464
I31
sS'1:23:1:3:3:3'
p3465
I4
sS'3:9:5:1'
p3466
I37
sS'3:9:7:3'
p3467
I43
sS'3:11:9:3:1'
p3468
I50
sS'3:7:11:1'
p3469
I25
sS'1:23:1:3:7:1'
p3470
I7
sS'1:23:1:3:7:3'
p3471
I8
sS'3:3'
p3472
I10
sS'3:1'
p3473
I9
sS'3:5'
p3474
I11
sS'3:9:5:5:3:1'
p3475
I39
sS'3:7:5:3'
p3476
I16
sS'3:7:11:3'
p3477
I26
sS'3:7:3:3'
p3478
I13
sS'3:9:3:5:3:1'
p3479
I36
sS'3:7:5:1'
p3480
I15
sS'3:7:3:5'
p3481
I14
sS'3:7:5:5'
p3482
I17
sS'3:7:3:1'
p3483
I12
ssS'14517278'
p3484
(dp3485
S'3:5:13:11'
p3486
I56
sS'3:1:11'
p3487
I8
sS'3:5:3:5:3:1'
p3488
I27
sS'3:7:11'
p3489
I61
sS'3:3:7:3'
p3490
I14
sS'3:3:7:1'
p3491
I13
sS'3:3:13:3'
p3492
I20
sS'3:5:7:5:3:1'
p3493
I40
sS'3:3:13:1'
p3494
I19
sS'3:5:3:9'
p3495
I29
sS'3:3:3:3'
p3496
I10
sS'3:3:3:1'
p3497
I9
sS'3:5:7:7'
p3498
I41
sS'3:5:9:5:3:1'
p3499
I44
sS'1:31:1:3:1:3:1'
p3500
I3
sS'3:5:5:5:3:1'
p3501
I32
sS'3:3:17:3'
p3502
I24
sS'3:1:3'
p3503
I4
sS'1:29:1:3:1'
p3504
I1
sS'3:5:5:1'
p3505
I30
sS'3:1:7'
p3506
I6
sS'3:5:5:7'
p3507
I33
sS'3:1:5'
p3508
I5
sS'3:5:13:7:3:1'
p3509
I54
sS'3:1:9'
p3510
I7
sS'3:3:17:1'
p3511
I23
sS'3:5:3:7'
p3512
I28
sS'1:31:1:3:1:1:1'
p3513
I2
sS'3:3:11:1'
p3514
I17
sS'3:3:11:3'
p3515
I18
sS'3:5:3:3'
p3516
I26
sS'3:5:11:5:3:1'
p3517
I48
sS'3:5:11:9'
p3518
I50
sS'3:5:13:9'
p3519
I55
sS'3:5:5:3'
p3520
I31
sS'3:3:9:1'
p3521
I15
sS'3:3:9:3'
p3522
I16
sS'3:5:13:1'
p3523
I51
sS'3:5:13:5'
p3524
I53
sS'3:5:5:11:3:1'
p3525
I35
sS'3:5:11:7'
p3526
I49
sS'3:5:5:15'
p3527
I37
sS'3:7:7'
p3528
I59
sS'3:5:11:3'
p3529
I47
sS'3:7:3'
p3530
I57
sS'3:5:5:13'
p3531
I36
sS'3:5:9:7'
p3532
I45
sS'3:5:13:3'
p3533
I52
sS'3:7:9'
p3534
I60
sS'3:5:9:3'
p3535
I43
sS'3:5:9:1'
p3536
I42
sS'3:5:7:1'
p3537
I38
sS'3:7:5'
p3538
I58
sS'3:5:11:1'
p3539
I46
sS'1:25:1:3:1:7:3:2'
p3540
I0
sS'3:5:3:1'
p3541
I25
sS'3:5:5:9'
p3542
I34
sS'3:5:7:3'
p3543
I39
sS'3:3:5:1'
p3544
I11
sS'3:3:5:3'
p3545
I12
sS'5:1:3'
p3546
I62
sS'3:3:15:1'
p3547
I21
sS'3:3:15:3'
p3548
I22
ssS'20026654'
p3549
(dp3550
S'3:3:7:3'
p3551
I16
sS'3:3:7:1'
p3552
I15
sS'3:7:13:3'
p3553
I47
sS'3:3:13:3'
p3554
I26
sS'3:3:13:1'
p3555
I25
sS'3:3:3:5:3:1'
p3556
I8
sS'3:3:9:5:3:1'
p3557
I19
sS'3:3:5:7:3:1'
p3558
I13
sS'3:3:3:1'
p3559
I6
sS'3:3:3:7'
p3560
I9
sS'5:3:3:2:3:9:3:1'
p3561
I63
sS'3:7:13:1'
p3562
I46
sS'3:7:17:3'
p3563
I51
sS'3:3:5:5:3:1'
p3564
I12
sS'5:3:3:2:3:1:3:1'
p3565
I59
sS'5:3:3:1'
p3566
I58
sS'3:1:3'
p3567
I3
sS'3:3:11:9:3:1'
p3568
I24
sS'3:1:7'
p3569
I5
sS'3:7:9:1'
p3570
I42
sS'3:1:5'
p3571
I4
sS'3:7:9:3'
p3572
I43
sS'3:3:13:7:3:1'
p3573
I28
sS'3:7:17:1'
p3574
I50
sS'3:3:11:5:3:1'
p3575
I22
sS'3:3:11:1'
p3576
I20
sS'3:3:11:3'
p3577
I21
sS'3:5:9'
p3578
I32
sS'3:3:11:7'
p3579
I23
sS'3:5:7'
p3580
I31
sS'3:5:5'
p3581
I30
sS'3:5:3'
p3582
I29
sS'5:3:3:2:3:7:3:1'
p3583
I62
sS'3:7:15:1'
p3584
I48
sS'3:7:7:1'
p3585
I40
sS'3:5:13'
p3586
I34
sS'3:5:11'
p3587
I33
sS'1:19:1:3:1'
p3588
I2
sS'3:3:9:1'
p3589
I17
sS'3:3:9:3'
p3590
I18
sS'3:7:7:3'
p3591
I41
sS'1:1:1:3:3:7:3:1'
p3592
I0
sS'3:7:11:1'
p3593
I44
sS'5:1:5'
p3594
I57
sS'5:3:3:2:3:5:3:1'
p3595
I61
sS'3:7:19:1'
p3596
I52
sS'5:1:3'
p3597
I56
sS'3:7:19:3'
p3598
I53
sS'5:3:3:2:3:3:3:1'
p3599
I60
sS'3:3:13:5'
p3600
I27
sS'3:7:5:3'
p3601
I39
sS'3:7:11:3'
p3602
I45
sS'1:17:1:3:1'
p3603
I1
sS'3:3:3:3'
p3604
I7
sS'3:7:15:3'
p3605
I49
sS'3:7:3:3'
p3606
I36
sS'3:7:21:1'
p3607
I54
sS'3:3:5:1'
p3608
I10
sS'3:7:21:3'
p3609
I55
sS'3:3:5:3'
p3610
I11
sS'3:7:5:1'
p3611
I38
sS'5:3:3:2:3:11:3:1'
p3612
I64
sS'3:7:3:5'
p3613
I37
sS'3:3:5:9'
p3614
I14
sS'3:7:3:1'
p3615
I35
ssS'15210743'
p3616
(dp3617
S'3:1:13'
p3618
I8
sS'3:1:11'
p3619
I7
sS'1:23:1:3:1:1:1'
p3620
I2
sS'3:7:11'
p3621
I44
sS'3:3:7:3'
p3622
I14
sS'3:7:13'
p3623
I45
sS'3:3:7:1'
p3624
I13
sS'3:3:3:3'
p3625
I10
sS'3:3:3:1'
p3626
I9
sS'3:5:3:5:3:1'
p3627
I22
sS'3:5:3:1'
p3628
I20
sS'3:1:3'
p3629
I3
sS'3:5:3:7:3:1'
p3630
I23
sS'3:5:5:1'
p3631
I26
sS'3:1:7'
p3632
I5
sS'3:5:13:5:3:1'
p3633
I38
sS'3:1:5'
p3634
I4
sS'3:1:9'
p3635
I6
sS'3:5:3:3'
p3636
I21
sS'3:3:11:1'
p3637
I17
sS'3:3:11:3'
p3638
I18
sS'3:3:11:5'
p3639
I19
sS'3:5:11:7:3:1'
p3640
I35
sS'3:5:13:7'
p3641
I39
sS'3:5:5:3'
p3642
I27
sS'3:3:9:1'
p3643
I15
sS'3:3:9:3'
p3644
I16
sS'3:5:13:1'
p3645
I36
sS'3:5:3:9:3:1'
p3646
I24
sS'3:7:5'
p3647
I41
sS'3:7:7'
p3648
I42
sS'3:5:11:5'
p3649
I34
sS'3:5:11:3'
p3650
I33
sS'3:7:3'
p3651
I40
sS'3:5:11:1'
p3652
I32
sS'3:5:13:3'
p3653
I37
sS'3:7:9'
p3654
I43
sS'3:5:9:3'
p3655
I31
sS'3:5:9:1'
p3656
I30
sS'5:1:5'
p3657
I47
sS'3:5:7:1'
p3658
I28
sS'1:21:1:3:1'
p3659
I1
sS'1:17:1:3:1:5:3:2'
p3660
I0
sS'3:5:3:11:3:1'
p3661
I25
sS'3:5:7:3'
p3662
I29
sS'3:3:5:1'
p3663
I11
sS'3:3:5:3'
p3664
I12
sS'5:1:3'
p3665
I46
sS'5:1:7'
p3666
I48
ssS'15767370'
p3667
(dp3668
S'3:11:5'
p3669
I27
sS'3:11:7'
p3670
I28
sS'3:13:5:1'
p3671
I33
sS'3:9:9:5:3:1'
p3672
I20
sS'3:11:3'
p3673
I26
sS'3:11:9'
p3674
I29
sS'3:9:11:3'
p3675
I24
sS'3:9:9:9'
p3676
I22
sS'1:31:1:3:1:11:3:2'
p3677
I0
sS'3:13:11:5'
p3678
I41
sS'3:9:9:3'
p3679
I19
sS'3:9:9:1'
p3680
I18
sS'3:9:9:7'
p3681
I21
sS'3:9:11:5:3:1'
p3682
I25
sS'3:13:13:1'
p3683
I42
sS'3:1'
p3684
I3
sS'3:13:15:3'
p3685
I45
sS'3:13:15:1'
p3686
I44
sS'1:37:1:3:1:1:1'
p3687
I2
sS'3:13:5:3'
p3688
I34
sS'3:13:19:3'
p3689
I49
sS'3:9:5:1'
p3690
I11
sS'3:13:3:1'
p3691
I31
sS'3:11:11'
p3692
I30
sS'3:9:7:7'
p3693
I17
sS'3:9:7:1'
p3694
I14
sS'3:9:7:3'
p3695
I15
sS'3:13:3:3'
p3696
I32
sS'3:13:17:1'
p3697
I46
sS'3:9:3:1'
p3698
I7
sS'3:9:3:3'
p3699
I8
sS'3:9:5:3'
p3700
I12
sS'3:9:3:7'
p3701
I10
sS'3:13:17:3'
p3702
I47
sS'5:1:5'
p3703
I51
sS'3:13:7:1'
p3704
I35
sS'5:1:7'
p3705
I52
sS'3:13:7:3'
p3706
I36
sS'5:1:3'
p3707
I50
sS'3:3'
p3708
I4
sS'3:9:7:5:3:1'
p3709
I16
sS'3:7'
p3710
I6
sS'3:5'
p3711
I5
sS'3:9:5:5:3:1'
p3712
I13
sS'3:13:13:3'
p3713
I43
sS'3:13:19:1'
p3714
I48
sS'3:13:11:3'
p3715
I40
sS'1:35:1:3:1'
p3716
I1
sS'3:13:9:3'
p3717
I38
sS'3:13:9:1'
p3718
I37
sS'3:9:11:1'
p3719
I23
sS'3:9:3:5:3:1'
p3720
I9
sS'3:13:11:1'
p3721
I39
ss.